(imatplotlib.font_manager
FontManager
p1
(dp2
S'afm_lookup_cache'
p3
(dp4
sS'ttflist'
p5
(lp6
ccopy_reg
_reconstructor
p7
(cmatplotlib.font_manager
FontEntry
p8
c__builtin__
object
p9
NtRp10
(dp11
S'style'
p12
S'normal'
p13
sS'name'
p14
S'cmb10'
p15
sS'weight'
p16
I400
sS'stretch'
p17
g13
sS'variant'
p18
g13
sS'fname'
p19
S'/usr/share/matplotlib/mpl-data/fonts/ttf/cmb10.ttf'
p20
sS'size'
p21
S'scalable'
p22
sbag7
(g8
g9
NtRp23
(dp24
g12
g13
sg14
S'cmex10'
p25
sg16
I400
sg17
g13
sg18
g13
sg19
S'/usr/share/matplotlib/mpl-data/fonts/ttf/cmex10.ttf'
p26
sg21
g22
sbag7
(g8
g9
NtRp27
(dp28
g12
S'italic'
p29
sg14
S'STIXNonUnicode'
p30
sg16
I400
sg17
g13
sg18
g13
sg19
S'/usr/share/matplotlib/mpl-data/fonts/ttf/STIXNonUniIta.ttf'
p31
sg21
g22
sbag7
(g8
g9
NtRp32
(dp33
g12
g13
sg14
S'STIXNonUnicode'
p34
sg16
I400
sg17
g13
sg18
g13
sg19
S'/usr/share/matplotlib/mpl-data/fonts/ttf/STIXNonUni.ttf'
p35
sg21
g22
sbag7
(g8
g9
NtRp36
(dp37
g12
g13
sg14
S'STIXSize5'
p38
sg16
I400
sg17
g13
sg18
g13
sg19
S'/usr/share/matplotlib/mpl-data/fonts/ttf/STIXSiz5Sym.ttf'
p39
sg21
g22
sbag7
(g8
g9
NtRp40
(dp41
g12
g13
sg14
S'cmtt10'
p42
sg16
I400
sg17
g13
sg18
g13
sg19
S'/usr/share/matplotlib/mpl-data/fonts/ttf/cmtt10.ttf'
p43
sg21
g22
sbag7
(g8
g9
NtRp44
(dp45
g12
g13
sg14
S'STIXGeneral'
p46
sg16
I400
sg17
g13
sg18
g13
sg19
S'/usr/share/matplotlib/mpl-data/fonts/ttf/STIXGeneral.ttf'
p47
sg21
g22
sbag7
(g8
g9
NtRp48
(dp49
g12
g29
sg14
S'STIXNonUnicode'
p50
sg16
I700
sg17
g13
sg18
g13
sg19
S'/usr/share/matplotlib/mpl-data/fonts/ttf/STIXNonUniBolIta.ttf'
p51
sg21
g22
sbag7
(g8
g9
NtRp52
(dp53
g12
g13
sg14
S'STIXSize3'
p54
sg16
I700
sg17
g13
sg18
g13
sg19
S'/usr/share/matplotlib/mpl-data/fonts/ttf/STIXSiz3SymBol.ttf'
p55
sg21
g22
sbag7
(g8
g9
NtRp56
(dp57
g12
g13
sg14
S'STIXSize3'
p58
sg16
I400
sg17
g13
sg18
g13
sg19
S'/usr/share/matplotlib/mpl-data/fonts/ttf/STIXSiz3Sym.ttf'
p59
sg21
g22
sbag7
(g8
g9
NtRp60
(dp61
g12
g13
sg14
S'STIXSize2'
p62
sg16
I400
sg17
g13
sg18
g13
sg19
S'/usr/share/matplotlib/mpl-data/fonts/ttf/STIXSiz2Sym.ttf'
p63
sg21
g22
sbag7
(g8
g9
NtRp64
(dp65
g12
g13
sg14
S'STIXGeneral'
p66
sg16
I700
sg17
g13
sg18
g13
sg19
S'/usr/share/matplotlib/mpl-data/fonts/ttf/STIXGeneralBol.ttf'
p67
sg21
g22
sbag7
(g8
g9
NtRp68
(dp69
g12
g13
sg14
S'STIXSize4'
p70
sg16
I700
sg17
g13
sg18
g13
sg19
S'/usr/share/matplotlib/mpl-data/fonts/ttf/STIXSiz4SymBol.ttf'
p71
sg21
g22
sbag7
(g8
g9
NtRp72
(dp73
g12
g13
sg14
S'STIXSize2'
p74
sg16
I700
sg17
g13
sg18
g13
sg19
S'/usr/share/matplotlib/mpl-data/fonts/ttf/STIXSiz2SymBol.ttf'
p75
sg21
g22
sbag7
(g8
g9
NtRp76
(dp77
g12
g13
sg14
S'cmsy10'
p78
sg16
I400
sg17
g13
sg18
g13
sg19
S'/usr/share/matplotlib/mpl-data/fonts/ttf/cmsy10.ttf'
p79
sg21
g22
sbag7
(g8
g9
NtRp80
(dp81
g12
g13
sg14
S'cmss10'
p82
sg16
I400
sg17
g13
sg18
g13
sg19
S'/usr/share/matplotlib/mpl-data/fonts/ttf/cmss10.ttf'
p83
sg21
g22
sbag7
(g8
g9
NtRp84
(dp85
g12
g13
sg14
S'STIXSize1'
p86
sg16
I700
sg17
g13
sg18
g13
sg19
S'/usr/share/matplotlib/mpl-data/fonts/ttf/STIXSiz1SymBol.ttf'
p87
sg21
g22
sbag7
(g8
g9
NtRp88
(dp89
g12
g29
sg14
S'STIXGeneral'
p90
sg16
I400
sg17
g13
sg18
g13
sg19
S'/usr/share/matplotlib/mpl-data/fonts/ttf/STIXGeneralItalic.ttf'
p91
sg21
g22
sbag7
(g8
g9
NtRp92
(dp93
g12
g13
sg14
S'cmr10'
p94
sg16
I400
sg17
g13
sg18
g13
sg19
S'/usr/share/matplotlib/mpl-data/fonts/ttf/cmr10.ttf'
p95
sg21
g22
sbag7
(g8
g9
NtRp96
(dp97
g12
g13
sg14
S'STIXSize4'
p98
sg16
I400
sg17
g13
sg18
g13
sg19
S'/usr/share/matplotlib/mpl-data/fonts/ttf/STIXSiz4Sym.ttf'
p99
sg21
g22
sbag7
(g8
g9
NtRp100
(dp101
g12
g13
sg14
S'STIXSize1'
p102
sg16
I400
sg17
g13
sg18
g13
sg19
S'/usr/share/matplotlib/mpl-data/fonts/ttf/STIXSiz1Sym.ttf'
p103
sg21
g22
sbag7
(g8
g9
NtRp104
(dp105
g12
g13
sg14
S'cmmi10'
p106
sg16
I400
sg17
g13
sg18
g13
sg19
S'/usr/share/matplotlib/mpl-data/fonts/ttf/cmmi10.ttf'
p107
sg21
g22
sbag7
(g8
g9
NtRp108
(dp109
g12
g13
sg14
S'STIXNonUnicode'
p110
sg16
I700
sg17
g13
sg18
g13
sg19
S'/usr/share/matplotlib/mpl-data/fonts/ttf/STIXNonUniBol.ttf'
p111
sg21
g22
sbag7
(g8
g9
NtRp112
(dp113
g12
g29
sg14
S'STIXGeneral'
p114
sg16
I700
sg17
g13
sg18
g13
sg19
S'/usr/share/matplotlib/mpl-data/fonts/ttf/STIXGeneralBolIta.ttf'
p115
sg21
g22
sbag7
(g8
g9
NtRp116
(dp117
g12
S'oblique'
p118
sg14
S'Purisa'
p119
sg16
I700
sg17
g13
sg18
g13
sg19
S'/usr/share/fonts/truetype/thai/Purisa-BoldOblique.ttf'
p120
sg21
g22
sbag7
(g8
g9
NtRp121
(dp122
g12
g13
sg14
S'Trebuchet MS'
p123
sg16
I400
sg17
g13
sg18
g13
sg19
S'/usr/share/fonts/truetype/msttcorefonts/Trebuchet_MS.ttf'
p124
sg21
g22
sbag7
(g8
g9
NtRp125
(dp126
g12
g13
sg14
S'Mallige'
p127
sg16
I700
sg17
g13
sg18
g13
sg19
S'/usr/share/fonts/truetype/ttf-indic-fonts-core/Malige-b.ttf'
p128
sg21
g22
sbag7
(g8
g9
NtRp129
(dp130
g12
g118
sg14
S'Kinnari'
p131
sg16
I700
sg17
g13
sg18
g13
sg19
S'/usr/share/fonts/truetype/thai/Kinnari-BoldOblique.ttf'
p132
sg21
g22
sbag7
(g8
g9
NtRp133
(dp134
g12
g118
sg14
S'Tlwg Typo'
p135
sg16
I400
sg17
g13
sg18
g13
sg19
S'/usr/share/fonts/truetype/thai/TlwgTypo-Oblique.ttf'
p136
sg21
g22
sbag7
(g8
g9
NtRp137
(dp138
g12
g13
sg14
S'Liberation Sans'
p139
sg16
I700
sg17
g13
sg18
g13
sg19
S'/usr/share/fonts/truetype/ttf-liberation/LiberationSans-Bold.ttf'
p140
sg21
g22
sbag7
(g8
g9
NtRp141
(dp142
g12
g13
sg14
S'Umpush'
p143
sg16
I400
sg17
g13
sg18
g13
sg19
S'/usr/share/fonts/truetype/thai/Umpush.ttf'
p144
sg21
g22
sbag7
(g8
g9
NtRp145
(dp146
g12
g29
sg14
S'Liberation Sans'
p147
sg16
I400
sg17
g13
sg18
g13
sg19
S'/usr/share/fonts/truetype/ttf-liberation/LiberationSans-Italic.ttf'
p148
sg21
g22
sbag7
(g8
g9
NtRp149
(dp150
g12
g118
sg14
S'Loma'
p151
sg16
I700
sg17
g13
sg18
g13
sg19
S'/usr/share/fonts/truetype/thai/Loma-BoldOblique.ttf'
p152
sg21
g22
sbag7
(g8
g9
NtRp153
(dp154
g12
g13
sg14
S'UnBatang'
p155
sg16
I700
sg17
g13
sg18
g13
sg19
S'/usr/share/fonts/truetype/unfonts/UnBatangBold.ttf'
p156
sg21
g22
sbag7
(g8
g9
NtRp157
(dp158
g12
g29
sg14
S'Verdana'
p159
sg16
I400
sg17
g13
sg18
g13
sg19
S'/usr/share/fonts/truetype/msttcorefonts/verdanai.ttf'
p160
sg21
g22
sbag7
(g8
g9
NtRp161
(dp162
g12
g118
sg14
S'DejaVu Sans Mono'
p163
sg16
I400
sg17
g13
sg18
g13
sg19
S'/usr/share/fonts/truetype/ttf-dejavu/DejaVuSansMono-Oblique.ttf'
p164
sg21
g22
sbag7
(g8
g9
NtRp165
(dp166
g12
g29
sg14
S'Courier New'
p167
sg16
I400
sg17
g13
sg18
g13
sg19
S'/usr/share/fonts/truetype/msttcorefonts/Courier_New_Italic.ttf'
p168
sg21
g22
sbag7
(g8
g9
NtRp169
(dp170
g12
g13
sg14
S'DejaVu Sans'
p171
sg16
I400
sg17
S'condensed'
p172
sg18
g13
sg19
S'/usr/share/fonts/truetype/ttf-dejavu/DejaVuSansCondensed.ttf'
p173
sg21
g22
sbag7
(g8
g9
NtRp174
(dp175
g12
g13
sg14
S'Liberation Mono'
p176
sg16
I700
sg17
g13
sg18
g13
sg19
S'/usr/share/fonts/truetype/ttf-liberation/LiberationMono-Bold.ttf'
p177
sg21
g22
sbag7
(g8
g9
NtRp178
(dp179
g12
g13
sg14
S'Phetsarath OT'
p180
sg16
I400
sg17
g13
sg18
g13
sg19
S'/usr/share/fonts/truetype/ttf-lao/Phetsarath_OT.ttf'
p181
sg21
g22
sbag7
(g8
g9
NtRp182
(dp183
g12
g13
sg14
S'DejaVu Sans Mono'
p184
sg16
I400
sg17
g13
sg18
g13
sg19
S'/usr/share/fonts/truetype/ttf-dejavu/DejaVuSansMono.ttf'
p185
sg21
g22
sbag7
(g8
g9
NtRp186
(dp187
g12
g118
sg14
S'TlwgMono'
p188
sg16
I400
sg17
g13
sg18
g13
sg19
S'/usr/share/fonts/truetype/thai/TlwgMono-Oblique.ttf'
p189
sg21
g22
sbag7
(g8
g9
NtRp190
(dp191
g12
g13
sg14
S'Lucida Bright'
p192
sg16
I400
sg17
g13
sg18
g13
sg19
S'/usr/share/fonts/truetype/ttf-lucida/LucidaBrightRegular.ttf'
p193
sg21
g22
sbag7
(g8
g9
NtRp194
(dp195
g12
g13
sg14
S'Meera'
p196
sg16
I400
sg17
g13
sg18
g13
sg19
S'/usr/share/fonts/truetype/ttf-indic-fonts-core/Meera_04.ttf'
p197
sg21
g22
sbag7
(g8
g9
NtRp198
(dp199
g12
g118
sg14
S'Loma'
p200
sg16
I400
sg17
g13
sg18
g13
sg19
S'/usr/share/fonts/truetype/thai/Loma-Oblique.ttf'
p201
sg21
g22
sbag7
(g8
g9
NtRp202
(dp203
g12
g29
sg14
S'Arial'
p204
sg16
I400
sg17
g13
sg18
g13
sg19
S'/usr/share/fonts/truetype/msttcorefonts/Arial_Italic.ttf'
p205
sg21
g22
sbag7
(g8
g9
NtRp206
(dp207
g12
g13
sg14
S'Georgia'
p208
sg16
I700
sg17
g13
sg18
g13
sg19
S'/usr/share/fonts/truetype/msttcorefonts/Georgia_Bold.ttf'
p209
sg21
g22
sbag7
(g8
g9
NtRp210
(dp211
g12
g13
sg14
S'Arial Black'
p212
sg16
I900
sg17
g13
sg18
g13
sg19
S'/usr/share/fonts/truetype/msttcorefonts/ariblk.ttf'
p213
sg21
g22
sbag7
(g8
g9
NtRp214
(dp215
g12
g13
sg14
S'FreeSerif'
p216
sg16
I700
sg17
g13
sg18
g13
sg19
S'/usr/share/fonts/truetype/freefont/FreeSerifBold.ttf'
p217
sg21
g22
sbag7
(g8
g9
NtRp218
(dp219
g12
g118
sg14
S'Umpush'
p220
sg16
I700
sg17
g13
sg18
g13
sg19
S'/usr/share/fonts/truetype/thai/Umpush-BoldOblique.ttf'
p221
sg21
g22
sbag7
(g8
g9
NtRp222
(dp223
g12
g29
sg14
S'Liberation Mono'
p224
sg16
I400
sg17
g13
sg18
g13
sg19
S'/usr/share/fonts/truetype/ttf-liberation/LiberationMono-Italic.ttf'
p225
sg21
g22
sbag7
(g8
g9
NtRp226
(dp227
g12
g13
sg14
S'Times New Roman'
p228
sg16
I700
sg17
g13
sg18
g13
sg19
S'/usr/share/fonts/truetype/msttcorefonts/timesbd.ttf'
p229
sg21
g22
sbag7
(g8
g9
NtRp230
(dp231
g12
g29
sg14
S'Lucida Bright'
p232
sg16
I700
sg17
g13
sg18
g13
sg19
S'/usr/share/fonts/truetype/ttf-lucida/LucidaBrightDemiItalic.ttf'
p233
sg21
g22
sbag7
(g8
g9
NtRp234
(dp235
g12
g13
sg14
S'Rachana'
p236
sg16
I400
sg17
g13
sg18
g13
sg19
S'/usr/share/fonts/truetype/ttf-indic-fonts-core/Rachana_04.ttf'
p237
sg21
g22
sbag7
(g8
g9
NtRp238
(dp239
g12
g13
sg14
S'DejaVu Serif'
p240
sg16
I400
sg17
g13
sg18
g13
sg19
S'/usr/share/fonts/truetype/ttf-dejavu/DejaVuSerif.ttf'
p241
sg21
g22
sbag7
(g8
g9
NtRp242
(dp243
g12
g118
sg14
S'FreeSans'
p244
sg16
I400
sg17
g13
sg18
g13
sg19
S'/usr/share/fonts/truetype/freefont/FreeSansOblique.ttf'
p245
sg21
g22
sbag7
(g8
g9
NtRp246
(dp247
g12
g13
sg14
S'Comic Sans MS'
p248
sg16
I700
sg17
g13
sg18
g13
sg19
S'/usr/share/fonts/truetype/msttcorefonts/Comic_Sans_MS_Bold.ttf'
p249
sg21
g22
sbag7
(g8
g9
NtRp250
(dp251
g12
g13
sg14
S'TlwgMono'
p252
sg16
I700
sg17
g13
sg18
g13
sg19
S'/usr/share/fonts/truetype/thai/TlwgMono-Bold.ttf'
p253
sg21
g22
sbag7
(g8
g9
NtRp254
(dp255
g12
g13
sg14
S'Lohit Hindi'
p256
sg16
I400
sg17
g13
sg18
g13
sg19
S'/usr/share/fonts/truetype/ttf-indic-fonts-core/lohit_hi.ttf'
p257
sg21
g22
sbag7
(g8
g9
NtRp258
(dp259
g12
g13
sg14
S'Courier New'
p260
sg16
I700
sg17
g13
sg18
g13
sg19
S'/usr/share/fonts/truetype/msttcorefonts/Courier_New_Bold.ttf'
p261
sg21
g22
sbag7
(g8
g9
NtRp262
(dp263
g12
g29
sg14
S'Georgia'
p264
sg16
I700
sg17
g13
sg18
g13
sg19
S'/usr/share/fonts/truetype/msttcorefonts/Georgia_Bold_Italic.ttf'
p265
sg21
g22
sbag7
(g8
g9
NtRp266
(dp267
g12
g118
sg14
S'DejaVu Sans'
p268
sg16
I400
sg17
g13
sg18
g13
sg19
S'/usr/share/fonts/truetype/ttf-dejavu/DejaVuSans-Oblique.ttf'
p269
sg21
g22
sbag7
(g8
g9
NtRp270
(dp271
g12
g13
sg14
S'UnDotum'
p272
sg16
I700
sg17
g13
sg18
g13
sg19
S'/usr/share/fonts/truetype/unfonts/UnDotumBold.ttf'
p273
sg21
g22
sbag7
(g8
g9
NtRp274
(dp275
g12
g13
sg14
S'eufm10'
p276
sg16
I400
sg17
g13
sg18
g13
sg19
S'/usr/share/fonts/truetype/ttf-lyx/eufm10.ttf'
p277
sg21
g22
sbag7
(g8
g9
NtRp278
(dp279
g12
g13
sg14
S'Norasi'
p280
sg16
I400
sg17
g13
sg18
g13
sg19
S'/usr/share/fonts/truetype/thai/Norasi.ttf'
p281
sg21
g22
sbag7
(g8
g9
NtRp282
(dp283
g12
g29
sg14
S'Times New Roman'
p284
sg16
I700
sg17
g13
sg18
g13
sg19
S'/usr/share/fonts/truetype/msttcorefonts/Times_New_Roman_Bold_Italic.ttf'
p285
sg21
g22
sbag7
(g8
g9
NtRp286
(dp287
g12
g13
sg14
S'FreeSans'
p288
sg16
I400
sg17
g13
sg18
g13
sg19
S'/usr/share/fonts/truetype/freefont/FreeSans.ttf'
p289
sg21
g22
sbag7
(g8
g9
NtRp290
(dp291
g12
g118
sg14
S'DejaVu Sans'
p292
sg16
I700
sg17
g13
sg18
g13
sg19
S'/usr/share/fonts/truetype/ttf-dejavu/DejaVuSans-BoldOblique.ttf'
p293
sg21
g22
sbag7
(g8
g9
NtRp294
(dp295
g12
g13
sg14
S'Times New Roman'
p296
sg16
I500
sg17
g13
sg18
g13
sg19
S'/usr/share/fonts/truetype/msttcorefonts/Times_New_Roman.ttf'
p297
sg21
g22
sbag7
(g8
g9
NtRp298
(dp299
g12
g29
sg14
S'DejaVu Serif'
p300
sg16
I400
sg17
g13
sg18
g13
sg19
S'/usr/share/fonts/truetype/ttf-dejavu/DejaVuSerif-Italic.ttf'
p301
sg21
g22
sbag7
(g8
g9
NtRp302
(dp303
g12
g13
sg14
S'wasy10'
p304
sg16
I400
sg17
g13
sg18
g13
sg19
S'/usr/share/fonts/truetype/ttf-lyx/wasy10.ttf'
p305
sg21
g22
sbag7
(g8
g9
NtRp306
(dp307
g12
g13
sg14
S'Impact'
p308
sg16
I400
sg17
g13
sg18
g13
sg19
S'/usr/share/fonts/truetype/msttcorefonts/Impact.ttf'
p309
sg21
g22
sbag7
(g8
g9
NtRp310
(dp311
g12
g118
sg14
S'DejaVu Sans'
p312
sg16
I700
sg17
g172
sg18
g13
sg19
S'/usr/share/fonts/truetype/ttf-dejavu/DejaVuSansCondensed-BoldOblique.ttf'
p313
sg21
g22
sbag7
(g8
g9
NtRp314
(dp315
g12
g13
sg14
S'Georgia'
p316
sg16
I400
sg17
g13
sg18
g13
sg19
S'/usr/share/fonts/truetype/msttcorefonts/Georgia.ttf'
p317
sg21
g22
sbag7
(g8
g9
NtRp318
(dp319
g12
g13
sg14
S'DejaVu Sans'
p320
sg16
I700
sg17
g172
sg18
g13
sg19
S'/usr/share/fonts/truetype/ttf-dejavu/DejaVuSansCondensed-Bold.ttf'
p321
sg21
g22
sbag7
(g8
g9
NtRp322
(dp323
g12
g13
sg14
S'Sawasdee'
p324
sg16
I700
sg17
g13
sg18
g13
sg19
S'/usr/share/fonts/truetype/thai/Sawasdee-Bold.ttf'
p325
sg21
g22
sbag7
(g8
g9
NtRp326
(dp327
g12
g13
sg14
S'msbm10'
p328
sg16
I400
sg17
g13
sg18
g13
sg19
S'/usr/share/fonts/truetype/ttf-lyx/msbm10.ttf'
p329
sg21
g22
sbag7
(g8
g9
NtRp330
(dp331
g12
g13
sg14
S'Saab'
p332
sg16
I400
sg17
g13
sg18
g13
sg19
S'/usr/share/fonts/truetype/ttf-punjabi-fonts/Saab.ttf'
p333
sg21
g22
sbag7
(g8
g9
NtRp334
(dp335
g12
g13
sg14
S'Andale Mono'
p336
sg16
I400
sg17
g13
sg18
g13
sg19
S'/usr/share/fonts/truetype/msttcorefonts/andalemo.ttf'
p337
sg21
g22
sbag7
(g8
g9
NtRp338
(dp339
g12
g13
sg14
S'Waree'
p340
sg16
I400
sg17
g13
sg18
g13
sg19
S'/usr/share/fonts/truetype/thai/Waree.ttf'
p341
sg21
g22
sbag7
(g8
g9
NtRp342
(dp343
g12
g29
sg14
S'Arial'
p344
sg16
I700
sg17
g13
sg18
g13
sg19
S'/usr/share/fonts/truetype/msttcorefonts/arialbi.ttf'
p345
sg21
g22
sbag7
(g8
g9
NtRp346
(dp347
g12
g118
sg14
S'Lucida Sans'
p348
sg16
I400
sg17
g13
sg18
g13
sg19
S'/usr/share/fonts/truetype/ttf-lucida/LucidaSansOblique.ttf'
p349
sg21
g22
sbag7
(g8
g9
NtRp350
(dp351
g12
g13
sg14
S'Verdana'
p352
sg16
I400
sg17
g13
sg18
g13
sg19
S'/usr/share/fonts/truetype/msttcorefonts/Verdana.ttf'
p353
sg21
g22
sbag7
(g8
g9
NtRp354
(dp355
g12
g13
sg14
S'DejaVu Sans Mono'
p356
sg16
I700
sg17
g13
sg18
g13
sg19
S'/usr/share/fonts/truetype/ttf-dejavu/DejaVuSansMono-Bold.ttf'
p357
sg21
g22
sbag7
(g8
g9
NtRp358
(dp359
g12
g118
sg14
S'Sawasdee'
p360
sg16
I700
sg17
g13
sg18
g13
sg19
S'/usr/share/fonts/truetype/thai/Sawasdee-BoldOblique.ttf'
p361
sg21
g22
sbag7
(g8
g9
NtRp362
(dp363
g12
g13
sg14
S'Loma'
p364
sg16
I400
sg17
g13
sg18
g13
sg19
S'/usr/share/fonts/truetype/thai/Loma.ttf'
p365
sg21
g22
sbag7
(g8
g9
NtRp366
(dp367
g12
g118
sg14
S'Waree'
p368
sg16
I700
sg17
g13
sg18
g13
sg19
S'/usr/share/fonts/truetype/thai/Waree-BoldOblique.ttf'
p369
sg21
g22
sbag7
(g8
g9
NtRp370
(dp371
g12
g13
sg14
S'TlwgTypewriter'
p372
sg16
I400
sg17
g13
sg18
g13
sg19
S'/usr/share/fonts/truetype/thai/TlwgTypewriter.ttf'
p373
sg21
g22
sbag7
(g8
g9
NtRp374
(dp375
g12
g118
sg14
S'DejaVu Sans'
p376
sg16
I400
sg17
g172
sg18
g13
sg19
S'/usr/share/fonts/truetype/ttf-dejavu/DejaVuSansCondensed-Oblique.ttf'
p377
sg21
g22
sbag7
(g8
g9
NtRp378
(dp379
g12
g13
sg14
S'Courier New'
p380
sg16
I400
sg17
g13
sg18
g13
sg19
S'/usr/share/fonts/truetype/msttcorefonts/cour.ttf'
p381
sg21
g22
sbag7
(g8
g9
NtRp382
(dp383
g12
g13
sg14
S'ori1Uni'
p384
sg16
I500
sg17
g13
sg18
g13
sg19
S'/usr/share/fonts/truetype/ttf-indic-fonts-core/utkal.ttf'
p385
sg21
g22
sbag7
(g8
g9
NtRp386
(dp387
g12
g29
sg14
S'Liberation Serif'
p388
sg16
I400
sg17
g13
sg18
g13
sg19
S'/usr/share/fonts/truetype/ttf-liberation/LiberationSerif-Italic.ttf'
p389
sg21
g22
sbag7
(g8
g9
NtRp390
(dp391
g12
g29
sg14
S'DejaVu Serif'
p392
sg16
I700
sg17
g13
sg18
g13
sg19
S'/usr/share/fonts/truetype/ttf-dejavu/DejaVuSerif-BoldItalic.ttf'
p393
sg21
g22
sbag7
(g8
g9
NtRp394
(dp395
g12
g13
sg14
S'Courier New'
p396
sg16
I700
sg17
g13
sg18
g13
sg19
S'/usr/share/fonts/truetype/msttcorefonts/courbd.ttf'
p397
sg21
g22
sbag7
(g8
g9
NtRp398
(dp399
g12
g29
sg14
S'Arial'
p400
sg16
I700
sg17
g13
sg18
g13
sg19
S'/usr/share/fonts/truetype/msttcorefonts/Arial_Bold_Italic.ttf'
p401
sg21
g22
sbag7
(g8
g9
NtRp402
(dp403
g12
g118
sg14
S'TlwgMono'
p404
sg16
I700
sg17
g13
sg18
g13
sg19
S'/usr/share/fonts/truetype/thai/TlwgMono-BoldOblique.ttf'
p405
sg21
g22
sbag7
(g8
g9
NtRp406
(dp407
g12
g118
sg14
S'Tlwg Typist'
p408
sg16
I400
sg17
g13
sg18
g13
sg19
S'/usr/share/fonts/truetype/thai/TlwgTypist-Oblique.ttf'
p409
sg21
g22
sbag7
(g8
g9
NtRp410
(dp411
g12
g13
sg14
S'Kedage'
p412
sg16
I700
sg17
g13
sg18
g13
sg19
S'/usr/share/fonts/truetype/ttf-indic-fonts-core/Kedage-b.ttf'
p413
sg21
g22
sbag7
(g8
g9
NtRp414
(dp415
g12
g13
sg14
S'DejaVu Serif'
p416
sg16
I700
sg17
g13
sg18
g13
sg19
S'/usr/share/fonts/truetype/ttf-dejavu/DejaVuSerif-Bold.ttf'
p417
sg21
g22
sbag7
(g8
g9
NtRp418
(dp419
g12
g13
sg14
S'KacstOne'
p420
sg16
I400
sg17
g13
sg18
g13
sg19
S'/usr/share/fonts/truetype/ttf-kacst-one/KacstOne.ttf'
p421
sg21
g22
sbag7
(g8
g9
NtRp422
(dp423
g12
g29
sg14
S'Trebuchet MS'
p424
sg16
I400
sg17
g13
sg18
g13
sg19
S'/usr/share/fonts/truetype/msttcorefonts/Trebuchet_MS_Italic.ttf'
p425
sg21
g22
sbag7
(g8
g9
NtRp426
(dp427
g12
g13
sg14
S'Liberation Serif'
p428
sg16
I700
sg17
g13
sg18
g13
sg19
S'/usr/share/fonts/truetype/ttf-liberation/LiberationSerif-Bold.ttf'
p429
sg21
g22
sbag7
(g8
g9
NtRp430
(dp431
g12
g29
sg14
S'Lucida Bright'
p432
sg16
I400
sg17
g13
sg18
g13
sg19
S'/usr/share/fonts/truetype/ttf-lucida/LucidaBrightItalic.ttf'
p433
sg21
g22
sbag7
(g8
g9
NtRp434
(dp435
g12
g13
sg14
S'Comic Sans MS'
p436
sg16
I700
sg17
g13
sg18
g13
sg19
S'/usr/share/fonts/truetype/msttcorefonts/comicbd.ttf'
p437
sg21
g22
sbag7
(g8
g9
NtRp438
(dp439
g12
g13
sg14
S'Tlwg Typist'
p440
sg16
I700
sg17
g13
sg18
g13
sg19
S'/usr/share/fonts/truetype/thai/TlwgTypist-Bold.ttf'
p441
sg21
g22
sbag7
(g8
g9
NtRp442
(dp443
g12
g13
sg14
S'Arial'
p444
sg16
I400
sg17
g13
sg18
g13
sg19
S'/usr/share/fonts/truetype/msttcorefonts/Arial.ttf'
p445
sg21
g22
sbag7
(g8
g9
NtRp446
(dp447
g12
g29
sg14
S'Courier New'
p448
sg16
I700
sg17
g13
sg18
g13
sg19
S'/usr/share/fonts/truetype/msttcorefonts/courbi.ttf'
p449
sg21
g22
sbag7
(g8
g9
NtRp450
(dp451
g12
g13
sg14
S'Times New Roman'
p452
sg16
I500
sg17
g13
sg18
g13
sg19
S'/usr/share/fonts/truetype/msttcorefonts/times.ttf'
p453
sg21
g22
sbag7
(g8
g9
NtRp454
(dp455
g12
g29
sg14
S'Verdana'
p456
sg16
I400
sg17
g13
sg18
g13
sg19
S'/usr/share/fonts/truetype/msttcorefonts/Verdana_Italic.ttf'
p457
sg21
g22
sbag7
(g8
g9
NtRp458
(dp459
g12
g29
sg14
S'Liberation Sans'
p460
sg16
I700
sg17
g13
sg18
g13
sg19
S'/usr/share/fonts/truetype/ttf-liberation/LiberationSans-BoldItalic.ttf'
p461
sg21
g22
sbag7
(g8
g9
NtRp462
(dp463
g12
g13
sg14
S'Mallige'
p464
sg16
I400
sg17
g13
sg18
g13
sg19
S'/usr/share/fonts/truetype/ttf-indic-fonts-core/Malige-n.ttf'
p465
sg21
g22
sbag7
(g8
g9
NtRp466
(dp467
g12
g13
sg14
S'Georgia'
p468
sg16
I400
sg17
g13
sg18
g13
sg19
S'/usr/share/fonts/truetype/msttcorefonts/georgia.ttf'
p469
sg21
g22
sbag7
(g8
g9
NtRp470
(dp471
g12
g13
sg14
S'Vemana2000'
p472
sg16
I400
sg17
g13
sg18
g13
sg19
S'/usr/share/fonts/truetype/ttf-indic-fonts-core/Vemana.ttf'
p473
sg21
g22
sbag7
(g8
g9
NtRp474
(dp475
g12
g13
sg14
S'Trebuchet MS'
p476
sg16
I400
sg17
g13
sg18
g13
sg19
S'/usr/share/fonts/truetype/msttcorefonts/trebuc.ttf'
p477
sg21
g22
sbag7
(g8
g9
NtRp478
(dp479
g12
g13
sg14
S'DejaVu Sans'
p480
sg16
I400
sg17
g13
sg18
g13
sg19
S'/usr/share/fonts/truetype/ttf-dejavu/DejaVuSans.ttf'
p481
sg21
g22
sbag7
(g8
g9
NtRp482
(dp483
g12
g13
sg14
S'FreeSans'
p484
sg16
I700
sg17
g13
sg18
g13
sg19
S'/usr/share/fonts/truetype/freefont/FreeSansBold.ttf'
p485
sg21
g22
sbag7
(g8
g9
NtRp486
(dp487
g12
g13
sg14
S'Loma'
p488
sg16
I700
sg17
g13
sg18
g13
sg19
S'/usr/share/fonts/truetype/thai/Loma-Bold.ttf'
p489
sg21
g22
sbag7
(g8
g9
NtRp490
(dp491
g12
g13
sg14
S'Lohit Bengali'
p492
sg16
I400
sg17
g13
sg18
g13
sg19
S'/usr/share/fonts/truetype/ttf-indic-fonts-core/lohit_bn.ttf'
p493
sg21
g22
sbag7
(g8
g9
NtRp494
(dp495
g12
g13
sg14
S'Sawasdee'
p496
sg16
I400
sg17
g13
sg18
g13
sg19
S'/usr/share/fonts/truetype/thai/Sawasdee.ttf'
p497
sg21
g22
sbag7
(g8
g9
NtRp498
(dp499
g12
g13
sg14
S'Lucida Sans Typewriter'
p500
sg16
I700
sg17
g13
sg18
g13
sg19
S'/usr/share/fonts/truetype/ttf-lucida/LucidaTypewriterBold.ttf'
p501
sg21
g22
sbag7
(g8
g9
NtRp502
(dp503
g12
g118
sg14
S'DejaVu Sans Mono'
p504
sg16
I700
sg17
g13
sg18
g13
sg19
S'/usr/share/fonts/truetype/ttf-dejavu/DejaVuSansMono-BoldOblique.ttf'
p505
sg21
g22
sbag7
(g8
g9
NtRp506
(dp507
g12
g29
sg14
S'Verdana'
p508
sg16
I700
sg17
g13
sg18
g13
sg19
S'/usr/share/fonts/truetype/msttcorefonts/verdanaz.ttf'
p509
sg21
g22
sbag7
(g8
g9
NtRp510
(dp511
g12
g13
sg14
S'FreeMono'
p512
sg16
I700
sg17
g13
sg18
g13
sg19
S'/usr/share/fonts/truetype/freefont/FreeMonoBold.ttf'
p513
sg21
g22
sbag7
(g8
g9
NtRp514
(dp515
g12
g13
sg14
S'DejaVu Sans'
p516
sg16
I700
sg17
g13
sg18
g13
sg19
S'/usr/share/fonts/truetype/ttf-dejavu/DejaVuSans-Bold.ttf'
p517
sg21
g22
sbag7
(g8
g9
NtRp518
(dp519
g12
g13
sg14
S'Garuda'
p520
sg16
I400
sg17
g13
sg18
g13
sg19
S'/usr/share/fonts/truetype/thai/Garuda.ttf'
p521
sg21
g22
sbag7
(g8
g9
NtRp522
(dp523
g12
g29
sg14
S'Trebuchet MS'
p524
sg16
I400
sg17
g13
sg18
g13
sg19
S'/usr/share/fonts/truetype/msttcorefonts/trebucit.ttf'
p525
sg21
g22
sbag7
(g8
g9
NtRp526
(dp527
g12
g13
sg14
S'Verdana'
p528
sg16
I700
sg17
g13
sg18
g13
sg19
S'/usr/share/fonts/truetype/msttcorefonts/Verdana_Bold.ttf'
p529
sg21
g22
sbag7
(g8
g9
NtRp530
(dp531
g12
g118
sg14
S'TlwgTypewriter'
p532
sg16
I400
sg17
g13
sg18
g13
sg19
S'/usr/share/fonts/truetype/thai/TlwgTypewriter-Oblique.ttf'
p533
sg21
g22
sbag7
(g8
g9
NtRp534
(dp535
g12
g29
sg14
S'Georgia'
p536
sg16
I400
sg17
g13
sg18
g13
sg19
S'/usr/share/fonts/truetype/msttcorefonts/georgiai.ttf'
p537
sg21
g22
sbag7
(g8
g9
NtRp538
(dp539
g12
g13
sg14
S'Andale Mono'
p540
sg16
I400
sg17
g13
sg18
g13
sg19
S'/usr/share/fonts/truetype/msttcorefonts/Andale_Mono.ttf'
p541
sg21
g22
sbag7
(g8
g9
NtRp542
(dp543
g12
g13
sg14
S'Lucida Sans'
p544
sg16
I400
sg17
g13
sg18
g13
sg19
S'/usr/share/fonts/truetype/ttf-lucida/LucidaSansRegular.ttf'
p545
sg21
g22
sbag7
(g8
g9
NtRp546
(dp547
g12
g29
sg14
S'Georgia'
p548
sg16
I400
sg17
g13
sg18
g13
sg19
S'/usr/share/fonts/truetype/msttcorefonts/Georgia_Italic.ttf'
p549
sg21
g22
sbag7
(g8
g9
NtRp550
(dp551
g12
g118
sg14
S'TlwgTypewriter'
p552
sg16
I700
sg17
g13
sg18
g13
sg19
S'/usr/share/fonts/truetype/thai/TlwgTypewriter-BoldOblique.ttf'
p553
sg21
g22
sbag7
(g8
g9
NtRp554
(dp555
g12
g13
sg14
S'Garuda'
p556
sg16
I700
sg17
g13
sg18
g13
sg19
S'/usr/share/fonts/truetype/thai/Garuda-Bold.ttf'
p557
sg21
g22
sbag7
(g8
g9
NtRp558
(dp559
g12
g13
sg14
S'Arial'
p560
sg16
I700
sg17
g13
sg18
g13
sg19
S'/usr/share/fonts/truetype/msttcorefonts/arialbd.ttf'
p561
sg21
g22
sbag7
(g8
g9
NtRp562
(dp563
g12
g13
sg14
S'Pothana2000'
p564
sg16
I400
sg17
g13
sg18
g13
sg19
S'/usr/share/fonts/truetype/ttf-indic-fonts-core/Pothana2000.ttf'
p565
sg21
g22
sbag7
(g8
g9
NtRp566
(dp567
g12
g13
sg14
S'Lohit Punjabi'
p568
sg16
I400
sg17
g13
sg18
g13
sg19
S'/usr/share/fonts/truetype/ttf-punjabi-fonts/lohit_pa.ttf'
p569
sg21
g22
sbag7
(g8
g9
NtRp570
(dp571
g12
g118
sg14
S'Umpush'
p572
sg16
I200
sg17
g13
sg18
g13
sg19
S'/usr/share/fonts/truetype/thai/Umpush-LightOblique.ttf'
p573
sg21
g22
sbag7
(g8
g9
NtRp574
(dp575
g12
g29
sg14
S'Courier New'
p576
sg16
I400
sg17
g13
sg18
g13
sg19
S'/usr/share/fonts/truetype/msttcorefonts/couri.ttf'
p577
sg21
g22
sbag7
(g8
g9
NtRp578
(dp579
g12
g13
sg14
S'Rekha'
p580
sg16
I400
sg17
g13
sg18
g13
sg19
S'/usr/share/fonts/truetype/ttf-indic-fonts-core/Rekha.ttf'
p581
sg21
g22
sbag7
(g8
g9
NtRp582
(dp583
g12
g13
sg14
S'Kinnari'
p584
sg16
I700
sg17
g13
sg18
g13
sg19
S'/usr/share/fonts/truetype/thai/Kinnari-Bold.ttf'
p585
sg21
g22
sbag7
(g8
g9
NtRp586
(dp587
g12
g29
sg14
S'DejaVu Serif'
p588
sg16
I700
sg17
g172
sg18
g13
sg19
S'/usr/share/fonts/truetype/ttf-dejavu/DejaVuSerifCondensed-BoldItalic.ttf'
p589
sg21
g22
sbag7
(g8
g9
NtRp590
(dp591
g12
g13
sg14
S'esint10'
p592
sg16
I400
sg17
g13
sg18
g13
sg19
S'/usr/share/fonts/truetype/ttf-lyx/esint10.ttf'
p593
sg21
g22
sbag7
(g8
g9
NtRp594
(dp595
g12
g13
sg14
S'TlwgMono'
p596
sg16
I400
sg17
g13
sg18
g13
sg19
S'/usr/share/fonts/truetype/thai/TlwgMono.ttf'
p597
sg21
g22
sbag7
(g8
g9
NtRp598
(dp599
g12
g13
sg14
S'OpenSymbol'
p600
sg16
I400
sg17
g13
sg18
g13
sg19
S'/usr/share/fonts/truetype/openoffice/opens___.ttf'
p601
sg21
g22
sbag7
(g8
g9
NtRp602
(dp603
g12
g29
sg14
S'Verdana'
p604
sg16
I700
sg17
g13
sg18
g13
sg19
S'/usr/share/fonts/truetype/msttcorefonts/Verdana_Bold_Italic.ttf'
p605
sg21
g22
sbag7
(g8
g9
NtRp606
(dp607
g12
g13
sg14
S'UnBatang'
p608
sg16
I400
sg17
g13
sg18
g13
sg19
S'/usr/share/fonts/truetype/unfonts/UnBatang.ttf'
p609
sg21
g22
sbag7
(g8
g9
NtRp610
(dp611
g12
g13
sg14
S'gargi'
p612
sg16
I400
sg17
g13
sg18
g13
sg19
S'/usr/share/fonts/truetype/ttf-indic-fonts-core/gargi.ttf'
p613
sg21
g22
sbag7
(g8
g9
NtRp614
(dp615
g12
g13
sg14
S'Khmer OS System'
p616
sg16
I400
sg17
g13
sg18
g13
sg19
S'/usr/share/fonts/truetype/ttf-khmeros-core/KhmerOSsys.ttf'
p617
sg21
g22
sbag7
(g8
g9
NtRp618
(dp619
g12
g29
sg14
S'Kinnari'
p620
sg16
I400
sg17
g13
sg18
g13
sg19
S'/usr/share/fonts/truetype/thai/Kinnari-Italic.ttf'
p621
sg21
g22
sbag7
(g8
g9
NtRp622
(dp623
g12
g13
sg14
S'Arial Black'
p624
sg16
I900
sg17
g13
sg18
g13
sg19
S'/usr/share/fonts/truetype/msttcorefonts/Arial_Black.ttf'
p625
sg21
g22
sbag7
(g8
g9
NtRp626
(dp627
g12
g13
sg14
S'TakaoPGothic'
p628
sg16
I400
sg17
g13
sg18
g13
sg19
S'/usr/share/fonts/truetype/takao/TakaoPGothic.ttf'
p629
sg21
g22
sbag7
(g8
g9
NtRp630
(dp631
g12
g13
sg14
S'Mukti Narrow'
p632
sg16
I700
sg17
g13
sg18
g13
sg19
S'/usr/share/fonts/truetype/ttf-indic-fonts-core/MuktiNarrowBold.ttf'
p633
sg21
g22
sbag7
(g8
g9
NtRp634
(dp635
g12
g13
sg14
S'UnDotum'
p636
sg16
I400
sg17
g13
sg18
g13
sg19
S'/usr/share/fonts/truetype/unfonts/UnDotum.ttf'
p637
sg21
g22
sbag7
(g8
g9
NtRp638
(dp639
g12
g29
sg14
S'Kinnari'
p640
sg16
I700
sg17
g13
sg18
g13
sg19
S'/usr/share/fonts/truetype/thai/Kinnari-BoldItalic.ttf'
p641
sg21
g22
sbag7
(g8
g9
NtRp642
(dp643
g12
g118
sg14
S'Lucida Sans Typewriter'
p644
sg16
I400
sg17
g13
sg18
g13
sg19
S'/usr/share/fonts/truetype/ttf-lucida/LucidaTypewriterOblique.ttf'
p645
sg21
g22
sbag7
(g8
g9
NtRp646
(dp647
g12
g118
sg14
S'FreeSans'
p648
sg16
I700
sg17
g13
sg18
g13
sg19
S'/usr/share/fonts/truetype/freefont/FreeSansBoldOblique.ttf'
p649
sg21
g22
sbag7
(g8
g9
NtRp650
(dp651
g12
g118
sg14
S'Lucida Sans Typewriter'
p652
sg16
I700
sg17
g13
sg18
g13
sg19
S'/usr/share/fonts/truetype/ttf-lucida/LucidaTypewriterBoldOblique.ttf'
p653
sg21
g22
sbag7
(g8
g9
NtRp654
(dp655
g12
g13
sg14
S'Purisa'
p656
sg16
I400
sg17
g13
sg18
g13
sg19
S'/usr/share/fonts/truetype/thai/Purisa.ttf'
p657
sg21
g22
sbag7
(g8
g9
NtRp658
(dp659
g12
g13
sg14
S'Kinnari'
p660
sg16
I400
sg17
g13
sg18
g13
sg19
S'/usr/share/fonts/truetype/thai/Kinnari.ttf'
p661
sg21
g22
sbag7
(g8
g9
NtRp662
(dp663
g12
g13
sg14
S'Liberation Serif'
p664
sg16
I400
sg17
g13
sg18
g13
sg19
S'/usr/share/fonts/truetype/ttf-liberation/LiberationSerif-Regular.ttf'
p665
sg21
g22
sbag7
(g8
g9
NtRp666
(dp667
g12
g118
sg14
S'FreeMono'
p668
sg16
I700
sg17
g13
sg18
g13
sg19
S'/usr/share/fonts/truetype/freefont/FreeMonoBoldOblique.ttf'
p669
sg21
g22
sbag7
(g8
g9
NtRp670
(dp671
g12
g13
sg14
S'Tlwg Typist'
p672
sg16
I400
sg17
g13
sg18
g13
sg19
S'/usr/share/fonts/truetype/thai/TlwgTypist.ttf'
p673
sg21
g22
sbag7
(g8
g9
NtRp674
(dp675
g12
g118
sg14
S'Norasi'
p676
sg16
I400
sg17
g13
sg18
g13
sg19
S'/usr/share/fonts/truetype/thai/Norasi-Oblique.ttf'
p677
sg21
g22
sbag7
(g8
g9
NtRp678
(dp679
g12
g118
sg14
S'Kinnari'
p680
sg16
I400
sg17
g13
sg18
g13
sg19
S'/usr/share/fonts/truetype/thai/Kinnari-Oblique.ttf'
p681
sg21
g22
sbag7
(g8
g9
NtRp682
(dp683
g12
g29
sg14
S'Arial'
p684
sg16
I400
sg17
g13
sg18
g13
sg19
S'/usr/share/fonts/truetype/msttcorefonts/ariali.ttf'
p685
sg21
g22
sbag7
(g8
g9
NtRp686
(dp687
g12
g29
sg14
S'FreeSerif'
p688
sg16
I700
sg17
g13
sg18
g13
sg19
S'/usr/share/fonts/truetype/freefont/FreeSerifBoldItalic.ttf'
p689
sg21
g22
sbag7
(g8
g9
NtRp690
(dp691
g12
g13
sg14
S'Tlwg Typo'
p692
sg16
I400
sg17
g13
sg18
g13
sg19
S'/usr/share/fonts/truetype/thai/TlwgTypo.ttf'
p693
sg21
g22
sbag7
(g8
g9
NtRp694
(dp695
g12
g29
sg14
S'Trebuchet MS'
p696
sg16
I700
sg17
g13
sg18
g13
sg19
S'/usr/share/fonts/truetype/msttcorefonts/trebucbi.ttf'
p697
sg21
g22
sbag7
(g8
g9
NtRp698
(dp699
g12
g13
sg14
S'Mukti Narrow'
p700
sg16
I400
sg17
g13
sg18
g13
sg19
S'/usr/share/fonts/truetype/ttf-indic-fonts-core/MuktiNarrow.ttf'
p701
sg21
g22
sbag7
(g8
g9
NtRp702
(dp703
g12
g13
sg14
S'msam10'
p704
sg16
I400
sg17
g13
sg18
g13
sg19
S'/usr/share/fonts/truetype/ttf-lyx/msam10.ttf'
p705
sg21
g22
sbag7
(g8
g9
NtRp706
(dp707
g12
g13
sg14
S'Waree'
p708
sg16
I700
sg17
g13
sg18
g13
sg19
S'/usr/share/fonts/truetype/thai/Waree-Bold.ttf'
p709
sg21
g22
sbag7
(g8
g9
NtRp710
(dp711
g12
g29
sg14
S'Times New Roman'
p712
sg16
I500
sg17
g13
sg18
g13
sg19
S'/usr/share/fonts/truetype/msttcorefonts/timesi.ttf'
p713
sg21
g22
sbag7
(g8
g9
NtRp714
(dp715
g12
g29
sg14
S'Times New Roman'
p716
sg16
I500
sg17
g13
sg18
g13
sg19
S'/usr/share/fonts/truetype/msttcorefonts/Times_New_Roman_Italic.ttf'
p717
sg21
g22
sbag7
(g8
g9
NtRp718
(dp719
g12
g13
sg14
S'Trebuchet MS'
p720
sg16
I700
sg17
g13
sg18
g13
sg19
S'/usr/share/fonts/truetype/msttcorefonts/trebucbd.ttf'
p721
sg21
g22
sbag7
(g8
g9
NtRp722
(dp723
g12
g13
sg14
S'Lohit Tamil'
p724
sg16
I400
sg17
g13
sg18
g13
sg19
S'/usr/share/fonts/truetype/ttf-indic-fonts-core/lohit_ta.ttf'
p725
sg21
g22
sbag7
(g8
g9
NtRp726
(dp727
g12
g13
sg14
S'Lucida Bright'
p728
sg16
I700
sg17
g13
sg18
g13
sg19
S'/usr/share/fonts/truetype/ttf-lucida/LucidaBrightDemiBold.ttf'
p729
sg21
g22
sbag7
(g8
g9
NtRp730
(dp731
g12
g29
sg14
S'Georgia'
p732
sg16
I700
sg17
g13
sg18
g13
sg19
S'/usr/share/fonts/truetype/msttcorefonts/georgiaz.ttf'
p733
sg21
g22
sbag7
(g8
g9
NtRp734
(dp735
g12
g29
sg14
S'Courier New'
p736
sg16
I700
sg17
g13
sg18
g13
sg19
S'/usr/share/fonts/truetype/msttcorefonts/Courier_New_Bold_Italic.ttf'
p737
sg21
g22
sbag7
(g8
g9
NtRp738
(dp739
g12
g13
sg14
S'DejaVu Serif'
p740
sg16
I700
sg17
g172
sg18
g13
sg19
S'/usr/share/fonts/truetype/ttf-dejavu/DejaVuSerifCondensed-Bold.ttf'
p741
sg21
g22
sbag7
(g8
g9
NtRp742
(dp743
g12
g13
sg14
S'Umpush'
p744
sg16
I700
sg17
g13
sg18
g13
sg19
S'/usr/share/fonts/truetype/thai/Umpush-Bold.ttf'
p745
sg21
g22
sbag7
(g8
g9
NtRp746
(dp747
g12
g13
sg14
S'Georgia'
p748
sg16
I700
sg17
g13
sg18
g13
sg19
S'/usr/share/fonts/truetype/msttcorefonts/georgiab.ttf'
p749
sg21
g22
sbag7
(g8
g9
NtRp750
(dp751
g12
g13
sg14
S'Trebuchet MS'
p752
sg16
I700
sg17
g13
sg18
g13
sg19
S'/usr/share/fonts/truetype/msttcorefonts/Trebuchet_MS_Bold.ttf'
p753
sg21
g22
sbag7
(g8
g9
NtRp754
(dp755
g12
g29
sg14
S'DejaVu Serif'
p756
sg16
I400
sg17
g172
sg18
g13
sg19
S'/usr/share/fonts/truetype/ttf-dejavu/DejaVuSerifCondensed-Italic.ttf'
p757
sg21
g22
sbag7
(g8
g9
NtRp758
(dp759
g12
g13
sg14
S'Kedage'
p760
sg16
I400
sg17
g13
sg18
g13
sg19
S'/usr/share/fonts/truetype/ttf-indic-fonts-core/Kedage-n.ttf'
p761
sg21
g22
sbag7
(g8
g9
NtRp762
(dp763
g12
g13
sg14
S'DejaVu Serif'
p764
sg16
I400
sg17
g172
sg18
g13
sg19
S'/usr/share/fonts/truetype/ttf-dejavu/DejaVuSerifCondensed.ttf'
p765
sg21
g22
sbag7
(g8
g9
NtRp766
(dp767
g12
g118
sg14
S'FreeMono'
p768
sg16
I400
sg17
g13
sg18
g13
sg19
S'/usr/share/fonts/truetype/freefont/FreeMonoOblique.ttf'
p769
sg21
g22
sbag7
(g8
g9
NtRp770
(dp771
g12
g13
sg14
S'TlwgTypewriter'
p772
sg16
I700
sg17
g13
sg18
g13
sg19
S'/usr/share/fonts/truetype/thai/TlwgTypewriter-Bold.ttf'
p773
sg21
g22
sbag7
(g8
g9
NtRp774
(dp775
g12
g13
sg14
S'Comic Sans MS'
p776
sg16
I400
sg17
g13
sg18
g13
sg19
S'/usr/share/fonts/truetype/msttcorefonts/comic.ttf'
p777
sg21
g22
sbag7
(g8
g9
NtRp778
(dp779
g12
g13
sg14
S'Umpush'
p780
sg16
I200
sg17
g13
sg18
g13
sg19
S'/usr/share/fonts/truetype/thai/Umpush-Light.ttf'
p781
sg21
g22
sbag7
(g8
g9
NtRp782
(dp783
g12
g118
sg14
S'Garuda'
p784
sg16
I400
sg17
g13
sg18
g13
sg19
S'/usr/share/fonts/truetype/thai/Garuda-Oblique.ttf'
p785
sg21
g22
sbag7
(g8
g9
NtRp786
(dp787
g12
g13
sg14
S'Webdings'
p788
sg16
I400
sg17
g13
sg18
g13
sg19
S'/usr/share/fonts/truetype/msttcorefonts/webdings.ttf'
p789
sg21
g22
sbag7
(g8
g9
NtRp790
(dp791
g12
g118
sg14
S'Tlwg Typo'
p792
sg16
I700
sg17
g13
sg18
g13
sg19
S'/usr/share/fonts/truetype/thai/TlwgTypo-BoldOblique.ttf'
p793
sg21
g22
sbag7
(g8
g9
NtRp794
(dp795
g12
g13
sg14
S'FreeSerif'
p796
sg16
I400
sg17
g13
sg18
g13
sg19
S'/usr/share/fonts/truetype/freefont/FreeSerif.ttf'
p797
sg21
g22
sbag7
(g8
g9
NtRp798
(dp799
g12
g13
sg14
S'Arial'
p800
sg16
I700
sg17
g13
sg18
g13
sg19
S'/usr/share/fonts/truetype/msttcorefonts/Arial_Bold.ttf'
p801
sg21
g22
sbag7
(g8
g9
NtRp802
(dp803
g12
g13
sg14
S'TakaoPGothic'
p804
sg16
I400
sg17
g13
sg18
g13
sg19
S'/usr/share/fonts/truetype/ttf-japanese-gothic.ttf'
p805
sg21
g22
sbag7
(g8
g9
NtRp806
(dp807
g12
g13
sg14
S'Liberation Mono'
p808
sg16
I400
sg17
g13
sg18
g13
sg19
S'/usr/share/fonts/truetype/ttf-liberation/LiberationMono-Regular.ttf'
p809
sg21
g22
sbag7
(g8
g9
NtRp810
(dp811
g12
g13
sg14
S'Purisa'
p812
sg16
I700
sg17
g13
sg18
g13
sg19
S'/usr/share/fonts/truetype/thai/Purisa-Bold.ttf'
p813
sg21
g22
sbag7
(g8
g9
NtRp814
(dp815
g12
g118
sg14
S'Umpush'
p816
sg16
I400
sg17
g13
sg18
g13
sg19
S'/usr/share/fonts/truetype/thai/Umpush-Oblique.ttf'
p817
sg21
g22
sbag7
(g8
g9
NtRp818
(dp819
g12
g29
sg14
S'Times New Roman'
p820
sg16
I700
sg17
g13
sg18
g13
sg19
S'/usr/share/fonts/truetype/msttcorefonts/timesbi.ttf'
p821
sg21
g22
sbag7
(g8
g9
NtRp822
(dp823
g12
g13
sg14
S'Comic Sans MS'
p824
sg16
I400
sg17
g13
sg18
g13
sg19
S'/usr/share/fonts/truetype/msttcorefonts/Comic_Sans_MS.ttf'
p825
sg21
g22
sbag7
(g8
g9
NtRp826
(dp827
g12
g13
sg14
S'Webdings'
p828
sg16
I400
sg17
g13
sg18
g13
sg19
S'/usr/share/fonts/truetype/msttcorefonts/Webdings.ttf'
p829
sg21
g22
sbag7
(g8
g9
NtRp830
(dp831
g12
g29
sg14
S'Liberation Serif'
p832
sg16
I700
sg17
g13
sg18
g13
sg19
S'/usr/share/fonts/truetype/ttf-liberation/LiberationSerif-BoldItalic.ttf'
p833
sg21
g22
sbag7
(g8
g9
NtRp834
(dp835
g12
g118
sg14
S'Sawasdee'
p836
sg16
I400
sg17
g13
sg18
g13
sg19
S'/usr/share/fonts/truetype/thai/Sawasdee-Oblique.ttf'
p837
sg21
g22
sbag7
(g8
g9
NtRp838
(dp839
g12
g118
sg14
S'Garuda'
p840
sg16
I700
sg17
g13
sg18
g13
sg19
S'/usr/share/fonts/truetype/thai/Garuda-BoldOblique.ttf'
p841
sg21
g22
sbag7
(g8
g9
NtRp842
(dp843
g12
g13
sg14
S'Norasi'
p844
sg16
I700
sg17
g13
sg18
g13
sg19
S'/usr/share/fonts/truetype/thai/Norasi-Bold.ttf'
p845
sg21
g22
sbag7
(g8
g9
NtRp846
(dp847
g12
g118
sg14
S'Purisa'
p848
sg16
I400
sg17
g13
sg18
g13
sg19
S'/usr/share/fonts/truetype/thai/Purisa-Oblique.ttf'
p849
sg21
g22
sbag7
(g8
g9
NtRp850
(dp851
g12
g29
sg14
S'Liberation Mono'
p852
sg16
I700
sg17
g13
sg18
g13
sg19
S'/usr/share/fonts/truetype/ttf-liberation/LiberationMono-BoldItalic.ttf'
p853
sg21
g22
sbag7
(g8
g9
NtRp854
(dp855
g12
g13
sg14
S'Arial'
p856
sg16
I400
sg17
g13
sg18
g13
sg19
S'/usr/share/fonts/truetype/msttcorefonts/arial.ttf'
p857
sg21
g22
sbag7
(g8
g9
NtRp858
(dp859
g12
g13
sg14
S'Lohit Gujarati'
p860
sg16
I400
sg17
g13
sg18
g13
sg19
S'/usr/share/fonts/truetype/ttf-indic-fonts-core/lohit_gu.ttf'
p861
sg21
g22
sbag7
(g8
g9
NtRp862
(dp863
g12
g13
sg14
S'Courier New'
p864
sg16
I400
sg17
g13
sg18
g13
sg19
S'/usr/share/fonts/truetype/msttcorefonts/Courier_New.ttf'
p865
sg21
g22
sbag7
(g8
g9
NtRp866
(dp867
g12
g13
sg14
S'Impact'
p868
sg16
I400
sg17
g13
sg18
g13
sg19
S'/usr/share/fonts/truetype/msttcorefonts/impact.ttf'
p869
sg21
g22
sbag7
(g8
g9
NtRp870
(dp871
g12
g118
sg14
S'Tlwg Typist'
p872
sg16
I700
sg17
g13
sg18
g13
sg19
S'/usr/share/fonts/truetype/thai/TlwgTypist-BoldOblique.ttf'
p873
sg21
g22
sbag7
(g8
g9
NtRp874
(dp875
g12
g13
sg14
S'Khmer OS'
p876
sg16
I400
sg17
g13
sg18
g13
sg19
S'/usr/share/fonts/truetype/ttf-khmeros-core/KhmerOS.ttf'
p877
sg21
g22
sbag7
(g8
g9
NtRp878
(dp879
g12
g13
sg14
S'Verdana'
p880
sg16
I700
sg17
g13
sg18
g13
sg19
S'/usr/share/fonts/truetype/msttcorefonts/verdanab.ttf'
p881
sg21
g22
sbag7
(g8
g9
NtRp882
(dp883
g12
g13
sg14
S'Tlwg Typo'
p884
sg16
I700
sg17
g13
sg18
g13
sg19
S'/usr/share/fonts/truetype/thai/TlwgTypo-Bold.ttf'
p885
sg21
g22
sbag7
(g8
g9
NtRp886
(dp887
g12
g29
sg14
S'Trebuchet MS'
p888
sg16
I700
sg17
g13
sg18
g13
sg19
S'/usr/share/fonts/truetype/msttcorefonts/Trebuchet_MS_Bold_Italic.ttf'
p889
sg21
g22
sbag7
(g8
g9
NtRp890
(dp891
g12
g118
sg14
S'Lucida Sans'
p892
sg16
I700
sg17
g13
sg18
g13
sg19
S'/usr/share/fonts/truetype/ttf-lucida/LucidaSansDemiOblique.ttf'
p893
sg21
g22
sbag7
(g8
g9
NtRp894
(dp895
g12
g13
sg14
S'Verdana'
p896
sg16
I400
sg17
g13
sg18
g13
sg19
S'/usr/share/fonts/truetype/msttcorefonts/verdana.ttf'
p897
sg21
g22
sbag7
(g8
g9
NtRp898
(dp899
g12
g118
sg14
S'Waree'
p900
sg16
I400
sg17
g13
sg18
g13
sg19
S'/usr/share/fonts/truetype/thai/Waree-Oblique.ttf'
p901
sg21
g22
sbag7
(g8
g9
NtRp902
(dp903
g12
g13
sg14
S'DejaVu Sans'
p904
sg16
I200
sg17
g13
sg18
g13
sg19
S'/usr/share/fonts/truetype/ttf-dejavu/DejaVuSans-ExtraLight.ttf'
p905
sg21
g22
sbag7
(g8
g9
NtRp906
(dp907
g12
g13
sg14
S'FreeMono'
p908
sg16
I400
sg17
g13
sg18
g13
sg19
S'/usr/share/fonts/truetype/freefont/FreeMono.ttf'
p909
sg21
g22
sbag7
(g8
g9
NtRp910
(dp911
g12
g29
sg14
S'Norasi'
p912
sg16
I700
sg17
g13
sg18
g13
sg19
S'/usr/share/fonts/truetype/thai/Norasi-BoldItalic.ttf'
p913
sg21
g22
sbag7
(g8
g9
NtRp914
(dp915
g12
g118
sg14
S'Norasi'
p916
sg16
I700
sg17
g13
sg18
g13
sg19
S'/usr/share/fonts/truetype/thai/Norasi-BoldOblique.ttf'
p917
sg21
g22
sbag7
(g8
g9
NtRp918
(dp919
g12
g29
sg14
S'FreeSerif'
p920
sg16
I400
sg17
g13
sg18
g13
sg19
S'/usr/share/fonts/truetype/freefont/FreeSerifItalic.ttf'
p921
sg21
g22
sbag7
(g8
g9
NtRp922
(dp923
g12
g13
sg14
S'Lucida Sans Typewriter'
p924
sg16
I400
sg17
g13
sg18
g13
sg19
S'/usr/share/fonts/truetype/ttf-lucida/LucidaTypewriterRegular.ttf'
p925
sg21
g22
sbag7
(g8
g9
NtRp926
(dp927
g12
g13
sg14
S'Lucida Sans'
p928
sg16
I700
sg17
g13
sg18
g13
sg19
S'/usr/share/fonts/truetype/ttf-lucida/LucidaSansDemiBold.ttf'
p929
sg21
g22
sbag7
(g8
g9
NtRp930
(dp931
g12
g29
sg14
S'Norasi'
p932
sg16
I400
sg17
g13
sg18
g13
sg19
S'/usr/share/fonts/truetype/thai/Norasi-Italic.ttf'
p933
sg21
g22
sbag7
(g8
g9
NtRp934
(dp935
g12
g13
sg14
S'Times New Roman'
p936
sg16
I700
sg17
g13
sg18
g13
sg19
S'/usr/share/fonts/truetype/msttcorefonts/Times_New_Roman_Bold.ttf'
p937
sg21
g22
sbag7
(g8
g9
NtRp938
(dp939
g12
g13
sg14
S'Liberation Sans'
p940
sg16
I400
sg17
g13
sg18
g13
sg19
S'/usr/share/fonts/truetype/ttf-liberation/LiberationSans-Regular.ttf'
p941
sg21
g22
sbasS'ttffiles'
p942
(lp943
S'/usr/share/matplotlib/mpl-data/fonts/ttf/cmb10.ttf'
p944
aS'/usr/share/matplotlib/mpl-data/fonts/ttf/cmex10.ttf'
p945
aS'/usr/share/matplotlib/mpl-data/fonts/ttf/STIXNonUniIta.ttf'
p946
aS'/usr/share/matplotlib/mpl-data/fonts/ttf/STIXNonUni.ttf'
p947
aS'/usr/share/matplotlib/mpl-data/fonts/ttf/STIXSiz5Sym.ttf'
p948
aS'/usr/share/matplotlib/mpl-data/fonts/ttf/cmtt10.ttf'
p949
aS'/usr/share/matplotlib/mpl-data/fonts/ttf/STIXGeneral.ttf'
p950
aS'/usr/share/matplotlib/mpl-data/fonts/ttf/STIXNonUniBolIta.ttf'
p951
aS'/usr/share/matplotlib/mpl-data/fonts/ttf/STIXSiz3SymBol.ttf'
p952
aS'/usr/share/matplotlib/mpl-data/fonts/ttf/STIXSiz3Sym.ttf'
p953
aS'/usr/share/matplotlib/mpl-data/fonts/ttf/STIXSiz2Sym.ttf'
p954
aS'/usr/share/matplotlib/mpl-data/fonts/ttf/STIXGeneralBol.ttf'
p955
aS'/usr/share/matplotlib/mpl-data/fonts/ttf/STIXSiz4SymBol.ttf'
p956
aS'/usr/share/matplotlib/mpl-data/fonts/ttf/STIXSiz2SymBol.ttf'
p957
aS'/usr/share/matplotlib/mpl-data/fonts/ttf/cmsy10.ttf'
p958
aS'/usr/share/matplotlib/mpl-data/fonts/ttf/cmss10.ttf'
p959
aS'/usr/share/matplotlib/mpl-data/fonts/ttf/STIXSiz1SymBol.ttf'
p960
aS'/usr/share/matplotlib/mpl-data/fonts/ttf/STIXGeneralItalic.ttf'
p961
aS'/usr/share/matplotlib/mpl-data/fonts/ttf/cmr10.ttf'
p962
aS'/usr/share/matplotlib/mpl-data/fonts/ttf/STIXSiz4Sym.ttf'
p963
aS'/usr/share/matplotlib/mpl-data/fonts/ttf/STIXSiz1Sym.ttf'
p964
aS'/usr/share/matplotlib/mpl-data/fonts/ttf/cmmi10.ttf'
p965
aS'/usr/share/matplotlib/mpl-data/fonts/ttf/STIXNonUniBol.ttf'
p966
aS'/usr/share/matplotlib/mpl-data/fonts/ttf/STIXGeneralBolIta.ttf'
p967
aS'/usr/share/fonts/truetype/thai/Purisa-BoldOblique.ttf'
p968
aS'/usr/share/fonts/truetype/msttcorefonts/Trebuchet_MS.ttf'
p969
aS'/usr/share/fonts/truetype/ttf-indic-fonts-core/Malige-b.ttf'
p970
aS'/usr/share/fonts/truetype/thai/Kinnari-BoldOblique.ttf'
p971
aS'/usr/share/fonts/truetype/thai/TlwgTypo-Oblique.ttf'
p972
aS'/usr/share/fonts/truetype/ttf-liberation/LiberationSans-Bold.ttf'
p973
aS'/usr/share/fonts/truetype/thai/Umpush.ttf'
p974
aS'/usr/share/fonts/truetype/ttf-liberation/LiberationSans-Italic.ttf'
p975
aS'/usr/share/fonts/truetype/thai/Loma-BoldOblique.ttf'
p976
aS'/usr/share/fonts/truetype/unfonts/UnBatangBold.ttf'
p977
aS'/usr/share/fonts/truetype/msttcorefonts/verdanai.ttf'
p978
aS'/usr/share/fonts/truetype/ttf-dejavu/DejaVuSansMono-Oblique.ttf'
p979
aS'/usr/share/fonts/truetype/msttcorefonts/Courier_New_Italic.ttf'
p980
aS'/usr/share/fonts/truetype/ttf-dejavu/DejaVuSansCondensed.ttf'
p981
aS'/usr/share/fonts/truetype/ttf-liberation/LiberationMono-Bold.ttf'
p982
aS'/usr/share/fonts/truetype/ttf-lao/Phetsarath_OT.ttf'
p983
aS'/usr/share/fonts/truetype/ttf-dejavu/DejaVuSansMono.ttf'
p984
aS'/usr/share/fonts/truetype/ttf-lyx/cmmi10.ttf'
p985
aS'/usr/share/fonts/truetype/thai/TlwgMono-Oblique.ttf'
p986
aS'/usr/share/fonts/truetype/ttf-lucida/LucidaBrightRegular.ttf'
p987
aS'/usr/share/fonts/truetype/ttf-indic-fonts-core/Meera_04.ttf'
p988
aS'/usr/share/fonts/truetype/thai/Loma-Oblique.ttf'
p989
aS'/usr/share/fonts/truetype/msttcorefonts/Arial_Italic.ttf'
p990
aS'/usr/share/fonts/truetype/msttcorefonts/Georgia_Bold.ttf'
p991
aS'/usr/share/fonts/truetype/msttcorefonts/ariblk.ttf'
p992
aS'/usr/share/fonts/truetype/freefont/FreeSerifBold.ttf'
p993
aS'/usr/share/fonts/truetype/thai/Umpush-BoldOblique.ttf'
p994
aS'/usr/share/fonts/truetype/ttf-liberation/LiberationMono-Italic.ttf'
p995
aS'/usr/share/fonts/truetype/msttcorefonts/timesbd.ttf'
p996
aS'/usr/share/fonts/truetype/ttf-lucida/LucidaBrightDemiItalic.ttf'
p997
aS'/usr/share/fonts/truetype/ttf-indic-fonts-core/Rachana_04.ttf'
p998
aS'/usr/share/fonts/truetype/ttf-dejavu/DejaVuSerif.ttf'
p999
aS'/usr/share/fonts/truetype/freefont/FreeSansOblique.ttf'
p1000
aS'/usr/share/fonts/truetype/msttcorefonts/Comic_Sans_MS_Bold.ttf'
p1001
aS'/usr/share/fonts/truetype/thai/TlwgMono-Bold.ttf'
p1002
aS'/usr/share/fonts/truetype/ttf-indic-fonts-core/lohit_hi.ttf'
p1003
aS'/usr/share/fonts/truetype/msttcorefonts/Courier_New_Bold.ttf'
p1004
aS'/usr/share/fonts/truetype/msttcorefonts/Georgia_Bold_Italic.ttf'
p1005
aS'/usr/share/fonts/truetype/ttf-dejavu/DejaVuSans-Oblique.ttf'
p1006
aS'/usr/share/fonts/truetype/unfonts/UnDotumBold.ttf'
p1007
aS'/usr/share/fonts/truetype/ttf-lyx/eufm10.ttf'
p1008
aS'/usr/share/fonts/truetype/thai/Norasi.ttf'
p1009
aS'/usr/share/fonts/truetype/msttcorefonts/Times_New_Roman_Bold_Italic.ttf'
p1010
aS'/usr/share/fonts/truetype/freefont/FreeSans.ttf'
p1011
aS'/usr/share/fonts/truetype/ttf-dejavu/DejaVuSans-BoldOblique.ttf'
p1012
aS'/usr/share/fonts/truetype/msttcorefonts/Times_New_Roman.ttf'
p1013
aS'/usr/share/fonts/truetype/ttf-dejavu/DejaVuSerif-Italic.ttf'
p1014
aS'/usr/share/fonts/truetype/ttf-lyx/wasy10.ttf'
p1015
aS'/usr/share/fonts/truetype/msttcorefonts/Impact.ttf'
p1016
aS'/usr/share/fonts/truetype/ttf-dejavu/DejaVuSansCondensed-BoldOblique.ttf'
p1017
aS'/usr/share/fonts/truetype/msttcorefonts/Georgia.ttf'
p1018
aS'/usr/share/fonts/truetype/ttf-dejavu/DejaVuSansCondensed-Bold.ttf'
p1019
aS'/usr/share/fonts/truetype/thai/Sawasdee-Bold.ttf'
p1020
aS'/usr/share/fonts/truetype/ttf-lyx/msbm10.ttf'
p1021
aS'/usr/share/fonts/truetype/ttf-punjabi-fonts/Saab.ttf'
p1022
aS'/usr/share/fonts/truetype/msttcorefonts/andalemo.ttf'
p1023
aS'/usr/share/fonts/truetype/thai/Waree.ttf'
p1024
aS'/usr/share/fonts/truetype/msttcorefonts/arialbi.ttf'
p1025
aS'/usr/share/fonts/truetype/ttf-lucida/LucidaSansOblique.ttf'
p1026
aS'/usr/share/fonts/truetype/msttcorefonts/Verdana.ttf'
p1027
aS'/usr/share/fonts/truetype/ttf-dejavu/DejaVuSansMono-Bold.ttf'
p1028
aS'/usr/share/fonts/truetype/thai/Sawasdee-BoldOblique.ttf'
p1029
aS'/usr/share/fonts/truetype/thai/Loma.ttf'
p1030
aS'/usr/share/fonts/truetype/thai/Waree-BoldOblique.ttf'
p1031
aS'/usr/share/fonts/truetype/thai/TlwgTypewriter.ttf'
p1032
aS'/usr/share/fonts/truetype/ttf-dejavu/DejaVuSansCondensed-Oblique.ttf'
p1033
aS'/usr/share/fonts/truetype/msttcorefonts/cour.ttf'
p1034
aS'/usr/share/fonts/truetype/ttf-indic-fonts-core/utkal.ttf'
p1035
aS'/usr/share/fonts/truetype/ttf-liberation/LiberationSerif-Italic.ttf'
p1036
aS'/usr/share/fonts/truetype/ttf-dejavu/DejaVuSerif-BoldItalic.ttf'
p1037
aS'/usr/share/fonts/truetype/msttcorefonts/courbd.ttf'
p1038
aS'/usr/share/fonts/truetype/msttcorefonts/Arial_Bold_Italic.ttf'
p1039
aS'/usr/share/fonts/truetype/thai/TlwgMono-BoldOblique.ttf'
p1040
aS'/usr/share/fonts/truetype/thai/TlwgTypist-Oblique.ttf'
p1041
aS'/usr/share/fonts/truetype/ttf-indic-fonts-core/Kedage-b.ttf'
p1042
aS'/usr/share/fonts/truetype/ttf-dejavu/DejaVuSerif-Bold.ttf'
p1043
aS'/usr/share/fonts/truetype/ttf-kacst-one/KacstOne.ttf'
p1044
aS'/usr/share/fonts/truetype/msttcorefonts/Trebuchet_MS_Italic.ttf'
p1045
aS'/usr/share/fonts/truetype/ttf-liberation/LiberationSerif-Bold.ttf'
p1046
aS'/usr/share/fonts/truetype/ttf-lucida/LucidaBrightItalic.ttf'
p1047
aS'/usr/share/fonts/truetype/msttcorefonts/comicbd.ttf'
p1048
aS'/usr/share/fonts/truetype/thai/TlwgTypist-Bold.ttf'
p1049
aS'/usr/share/fonts/truetype/msttcorefonts/Arial.ttf'
p1050
aS'/usr/share/fonts/truetype/msttcorefonts/courbi.ttf'
p1051
aS'/usr/share/fonts/truetype/msttcorefonts/times.ttf'
p1052
aS'/usr/share/fonts/truetype/msttcorefonts/Verdana_Italic.ttf'
p1053
aS'/usr/share/fonts/truetype/ttf-liberation/LiberationSans-BoldItalic.ttf'
p1054
aS'/usr/share/fonts/truetype/ttf-indic-fonts-core/Malige-n.ttf'
p1055
aS'/usr/share/fonts/truetype/msttcorefonts/georgia.ttf'
p1056
aS'/usr/share/fonts/truetype/ttf-indic-fonts-core/Vemana.ttf'
p1057
aS'/usr/share/fonts/truetype/msttcorefonts/trebuc.ttf'
p1058
aS'/usr/share/fonts/truetype/ttf-dejavu/DejaVuSans.ttf'
p1059
aS'/usr/share/fonts/truetype/freefont/FreeSansBold.ttf'
p1060
aS'/usr/share/fonts/truetype/thai/Loma-Bold.ttf'
p1061
aS'/usr/share/fonts/truetype/ttf-indic-fonts-core/lohit_bn.ttf'
p1062
aS'/usr/share/fonts/truetype/thai/Sawasdee.ttf'
p1063
aS'/usr/share/fonts/truetype/ttf-lucida/LucidaTypewriterBold.ttf'
p1064
aS'/usr/share/fonts/truetype/ttf-dejavu/DejaVuSansMono-BoldOblique.ttf'
p1065
aS'/usr/share/fonts/truetype/msttcorefonts/verdanaz.ttf'
p1066
aS'/usr/share/fonts/truetype/freefont/FreeMonoBold.ttf'
p1067
aS'/usr/share/fonts/truetype/ttf-dejavu/DejaVuSans-Bold.ttf'
p1068
aS'/usr/share/fonts/truetype/thai/Garuda.ttf'
p1069
aS'/usr/share/fonts/truetype/msttcorefonts/trebucit.ttf'
p1070
aS'/usr/share/fonts/truetype/msttcorefonts/Verdana_Bold.ttf'
p1071
aS'/usr/share/fonts/truetype/thai/TlwgTypewriter-Oblique.ttf'
p1072
aS'/usr/share/fonts/truetype/msttcorefonts/georgiai.ttf'
p1073
aS'/usr/share/fonts/truetype/msttcorefonts/Andale_Mono.ttf'
p1074
aS'/usr/share/fonts/truetype/ttf-lucida/LucidaSansRegular.ttf'
p1075
aS'/usr/share/fonts/truetype/msttcorefonts/Georgia_Italic.ttf'
p1076
aS'/usr/share/fonts/truetype/thai/TlwgTypewriter-BoldOblique.ttf'
p1077
aS'/usr/share/fonts/truetype/thai/Garuda-Bold.ttf'
p1078
aS'/usr/share/fonts/truetype/msttcorefonts/arialbd.ttf'
p1079
aS'/usr/share/fonts/truetype/ttf-indic-fonts-core/Pothana2000.ttf'
p1080
aS'/usr/share/fonts/truetype/ttf-punjabi-fonts/lohit_pa.ttf'
p1081
aS'/usr/share/fonts/truetype/thai/Umpush-LightOblique.ttf'
p1082
aS'/usr/share/fonts/truetype/msttcorefonts/couri.ttf'
p1083
aS'/usr/share/fonts/truetype/ttf-indic-fonts-core/Rekha.ttf'
p1084
aS'/usr/share/fonts/truetype/thai/Kinnari-Bold.ttf'
p1085
aS'/usr/share/fonts/truetype/ttf-dejavu/DejaVuSerifCondensed-BoldItalic.ttf'
p1086
aS'/usr/share/fonts/truetype/ttf-lyx/esint10.ttf'
p1087
aS'/usr/share/fonts/truetype/thai/TlwgMono.ttf'
p1088
aS'/usr/share/fonts/truetype/openoffice/opens___.ttf'
p1089
aS'/usr/share/fonts/truetype/msttcorefonts/Verdana_Bold_Italic.ttf'
p1090
aS'/usr/share/fonts/truetype/unfonts/UnBatang.ttf'
p1091
aS'/usr/share/fonts/truetype/ttf-indic-fonts-core/gargi.ttf'
p1092
aS'/usr/share/fonts/truetype/ttf-khmeros-core/KhmerOSsys.ttf'
p1093
aS'/usr/share/fonts/truetype/thai/Kinnari-Italic.ttf'
p1094
aS'/usr/share/fonts/truetype/msttcorefonts/Arial_Black.ttf'
p1095
aS'/usr/share/fonts/truetype/takao/TakaoPGothic.ttf'
p1096
aS'/usr/share/fonts/truetype/ttf-indic-fonts-core/MuktiNarrowBold.ttf'
p1097
aS'/usr/share/fonts/truetype/unfonts/UnDotum.ttf'
p1098
aS'/usr/share/fonts/truetype/thai/Kinnari-BoldItalic.ttf'
p1099
aS'/usr/share/fonts/truetype/ttf-lucida/LucidaTypewriterOblique.ttf'
p1100
aS'/usr/share/fonts/truetype/freefont/FreeSansBoldOblique.ttf'
p1101
aS'/usr/share/fonts/truetype/ttf-lucida/LucidaTypewriterBoldOblique.ttf'
p1102
aS'/usr/share/fonts/truetype/thai/Purisa.ttf'
p1103
aS'/usr/share/fonts/truetype/thai/Kinnari.ttf'
p1104
aS'/usr/share/fonts/truetype/ttf-liberation/LiberationSerif-Regular.ttf'
p1105
aS'/usr/share/fonts/truetype/freefont/FreeMonoBoldOblique.ttf'
p1106
aS'/usr/share/fonts/truetype/thai/TlwgTypist.ttf'
p1107
aS'/usr/share/fonts/truetype/thai/Norasi-Oblique.ttf'
p1108
aS'/usr/share/fonts/truetype/thai/Kinnari-Oblique.ttf'
p1109
aS'/usr/share/fonts/truetype/ttf-lyx/cmr10.ttf'
p1110
aS'/usr/share/fonts/truetype/msttcorefonts/ariali.ttf'
p1111
aS'/usr/share/fonts/truetype/freefont/FreeSerifBoldItalic.ttf'
p1112
aS'/usr/share/fonts/truetype/thai/TlwgTypo.ttf'
p1113
aS'/usr/share/fonts/truetype/msttcorefonts/trebucbi.ttf'
p1114
aS'/usr/share/fonts/truetype/ttf-indic-fonts-core/MuktiNarrow.ttf'
p1115
aS'/usr/share/fonts/truetype/ttf-lyx/msam10.ttf'
p1116
aS'/usr/share/fonts/truetype/thai/Waree-Bold.ttf'
p1117
aS'/usr/share/fonts/truetype/msttcorefonts/timesi.ttf'
p1118
aS'/usr/share/fonts/truetype/msttcorefonts/Times_New_Roman_Italic.ttf'
p1119
aS'/usr/share/fonts/truetype/msttcorefonts/trebucbd.ttf'
p1120
aS'/usr/share/fonts/truetype/ttf-indic-fonts-core/lohit_ta.ttf'
p1121
aS'/usr/share/fonts/truetype/ttf-lyx/cmsy10.ttf'
p1122
aS'/usr/share/fonts/truetype/ttf-lucida/LucidaBrightDemiBold.ttf'
p1123
aS'/usr/share/fonts/truetype/msttcorefonts/georgiaz.ttf'
p1124
aS'/usr/share/fonts/truetype/msttcorefonts/Courier_New_Bold_Italic.ttf'
p1125
aS'/usr/share/fonts/truetype/ttf-dejavu/DejaVuSerifCondensed-Bold.ttf'
p1126
aS'/usr/share/fonts/truetype/thai/Umpush-Bold.ttf'
p1127
aS'/usr/share/fonts/truetype/msttcorefonts/georgiab.ttf'
p1128
aS'/usr/share/fonts/truetype/msttcorefonts/Trebuchet_MS_Bold.ttf'
p1129
aS'/usr/share/fonts/truetype/ttf-dejavu/DejaVuSerifCondensed-Italic.ttf'
p1130
aS'/usr/share/fonts/truetype/ttf-indic-fonts-core/Kedage-n.ttf'
p1131
aS'/usr/share/fonts/truetype/ttf-dejavu/DejaVuSerifCondensed.ttf'
p1132
aS'/usr/share/fonts/truetype/freefont/FreeMonoOblique.ttf'
p1133
aS'/usr/share/fonts/truetype/thai/TlwgTypewriter-Bold.ttf'
p1134
aS'/usr/share/fonts/truetype/msttcorefonts/comic.ttf'
p1135
aS'/usr/share/fonts/truetype/thai/Umpush-Light.ttf'
p1136
aS'/usr/share/fonts/truetype/thai/Garuda-Oblique.ttf'
p1137
aS'/usr/share/fonts/truetype/msttcorefonts/webdings.ttf'
p1138
aS'/usr/share/fonts/truetype/thai/TlwgTypo-BoldOblique.ttf'
p1139
aS'/usr/share/fonts/truetype/freefont/FreeSerif.ttf'
p1140
aS'/usr/share/fonts/truetype/msttcorefonts/Arial_Bold.ttf'
p1141
aS'/usr/share/fonts/truetype/ttf-japanese-gothic.ttf'
p1142
aS'/usr/share/fonts/truetype/ttf-liberation/LiberationMono-Regular.ttf'
p1143
aS'/usr/share/fonts/truetype/thai/Purisa-Bold.ttf'
p1144
aS'/usr/share/fonts/truetype/thai/Umpush-Oblique.ttf'
p1145
aS'/usr/share/fonts/truetype/msttcorefonts/timesbi.ttf'
p1146
aS'/usr/share/fonts/truetype/msttcorefonts/Comic_Sans_MS.ttf'
p1147
aS'/usr/share/fonts/truetype/msttcorefonts/Webdings.ttf'
p1148
aS'/usr/share/fonts/truetype/ttf-liberation/LiberationSerif-BoldItalic.ttf'
p1149
aS'/usr/share/fonts/truetype/thai/Sawasdee-Oblique.ttf'
p1150
aS'/usr/share/fonts/truetype/thai/Garuda-BoldOblique.ttf'
p1151
aS'/usr/share/fonts/truetype/thai/Norasi-Bold.ttf'
p1152
aS'/usr/share/fonts/truetype/thai/Purisa-Oblique.ttf'
p1153
aS'/usr/share/fonts/truetype/ttf-liberation/LiberationMono-BoldItalic.ttf'
p1154
aS'/usr/share/fonts/truetype/msttcorefonts/arial.ttf'
p1155
aS'/usr/share/fonts/truetype/ttf-indic-fonts-core/lohit_gu.ttf'
p1156
aS'/usr/share/fonts/truetype/msttcorefonts/Courier_New.ttf'
p1157
aS'/usr/share/fonts/truetype/msttcorefonts/impact.ttf'
p1158
aS'/usr/share/fonts/truetype/thai/TlwgTypist-BoldOblique.ttf'
p1159
aS'/usr/share/fonts/truetype/ttf-khmeros-core/KhmerOS.ttf'
p1160
aS'/usr/share/fonts/truetype/msttcorefonts/verdanab.ttf'
p1161
aS'/usr/share/fonts/truetype/thai/TlwgTypo-Bold.ttf'
p1162
aS'/usr/share/fonts/truetype/msttcorefonts/Trebuchet_MS_Bold_Italic.ttf'
p1163
aS'/usr/share/fonts/truetype/ttf-lucida/LucidaSansDemiOblique.ttf'
p1164
aS'/usr/share/fonts/truetype/msttcorefonts/verdana.ttf'
p1165
aS'/usr/share/fonts/truetype/thai/Waree-Oblique.ttf'
p1166
aS'/usr/share/fonts/truetype/ttf-dejavu/DejaVuSans-ExtraLight.ttf'
p1167
aS'/usr/share/fonts/truetype/freefont/FreeMono.ttf'
p1168
aS'/usr/share/fonts/truetype/thai/Norasi-BoldItalic.ttf'
p1169
aS'/usr/share/fonts/truetype/thai/Norasi-BoldOblique.ttf'
p1170
aS'/usr/share/fonts/truetype/freefont/FreeSerifItalic.ttf'
p1171
aS'/usr/share/fonts/truetype/ttf-lucida/LucidaTypewriterRegular.ttf'
p1172
aS'/usr/share/fonts/truetype/ttf-lucida/LucidaSansDemiBold.ttf'
p1173
aS'/usr/share/fonts/truetype/thai/Norasi-Italic.ttf'
p1174
aS'/usr/share/fonts/truetype/ttf-lyx/cmex10.ttf'
p1175
aS'/usr/share/fonts/truetype/msttcorefonts/Times_New_Roman_Bold.ttf'
p1176
aS'/usr/share/fonts/truetype/ttf-liberation/LiberationSans-Regular.ttf'
p1177
asS'_FontManager__default_weight'
p1178
g13
sS'ttf_lookup_cache'
p1179
(dp1180
sS'default_size'
p1181
NsS'defaultFont'
p1182
g944
sS'afmfiles'
p1183
(lp1184
S'/usr/share/matplotlib/mpl-data/fonts/afm/pagko8a.afm'
p1185
aS'/usr/share/matplotlib/mpl-data/fonts/afm/pzcmi8a.afm'
p1186
aS'/usr/share/matplotlib/mpl-data/fonts/afm/pplb8a.afm'
p1187
aS'/usr/share/matplotlib/mpl-data/fonts/afm/putbi8a.afm'
p1188
aS'/usr/share/matplotlib/mpl-data/fonts/afm/phvro8an.afm'
p1189
aS'/usr/share/matplotlib/mpl-data/fonts/afm/pbkd8a.afm'
p1190
aS'/usr/share/matplotlib/mpl-data/fonts/afm/pcrbo8a.afm'
p1191
aS'/usr/share/matplotlib/mpl-data/fonts/afm/putr8a.afm'
p1192
aS'/usr/share/matplotlib/mpl-data/fonts/afm/pagdo8a.afm'
p1193
aS'/usr/share/matplotlib/mpl-data/fonts/afm/pcrr8a.afm'
p1194
aS'/usr/share/matplotlib/mpl-data/fonts/afm/pncri8a.afm'
p1195
aS'/usr/share/matplotlib/mpl-data/fonts/afm/pncb8a.afm'
p1196
aS'/usr/share/matplotlib/mpl-data/fonts/afm/pncbi8a.afm'
p1197
aS'/usr/share/matplotlib/mpl-data/fonts/afm/pncr8a.afm'
p1198
aS'/usr/share/matplotlib/mpl-data/fonts/afm/cmex10.afm'
p1199
aS'/usr/share/matplotlib/mpl-data/fonts/afm/cmtt10.afm'
p1200
aS'/usr/share/matplotlib/mpl-data/fonts/afm/phvr8an.afm'
p1201
aS'/usr/share/matplotlib/mpl-data/fonts/afm/phvro8a.afm'
p1202
aS'/usr/share/matplotlib/mpl-data/fonts/afm/ptmr8a.afm'
p1203
aS'/usr/share/matplotlib/mpl-data/fonts/afm/pplbi8a.afm'
p1204
aS'/usr/share/matplotlib/mpl-data/fonts/afm/cmsy10.afm'
p1205
aS'/usr/share/matplotlib/mpl-data/fonts/afm/pagk8a.afm'
p1206
aS'/usr/share/matplotlib/mpl-data/fonts/afm/putb8a.afm'
p1207
aS'/usr/share/matplotlib/mpl-data/fonts/afm/cmmi10.afm'
p1208
aS'/usr/share/matplotlib/mpl-data/fonts/afm/phvl8a.afm'
p1209
aS'/usr/share/matplotlib/mpl-data/fonts/afm/phvbo8an.afm'
p1210
aS'/usr/share/matplotlib/mpl-data/fonts/afm/phvbo8a.afm'
p1211
aS'/usr/share/matplotlib/mpl-data/fonts/afm/cmr10.afm'
p1212
aS'/usr/share/matplotlib/mpl-data/fonts/afm/ptmb8a.afm'
p1213
aS'/usr/share/matplotlib/mpl-data/fonts/afm/phvlo8a.afm'
p1214
aS'/usr/share/matplotlib/mpl-data/fonts/afm/phvb8a.afm'
p1215
aS'/usr/share/matplotlib/mpl-data/fonts/afm/pzdr.afm'
p1216
aS'/usr/share/matplotlib/mpl-data/fonts/afm/ptmri8a.afm'
p1217
aS'/usr/share/matplotlib/mpl-data/fonts/afm/pplr8a.afm'
p1218
aS'/usr/share/matplotlib/mpl-data/fonts/afm/pbkl8a.afm'
p1219
aS'/usr/share/matplotlib/mpl-data/fonts/afm/pcrro8a.afm'
p1220
aS'/usr/share/matplotlib/mpl-data/fonts/afm/psyr.afm'
p1221
aS'/usr/share/matplotlib/mpl-data/fonts/afm/pplri8a.afm'
p1222
aS'/usr/share/matplotlib/mpl-data/fonts/afm/ptmbi8a.afm'
p1223
aS'/usr/share/matplotlib/mpl-data/fonts/afm/pbkli8a.afm'
p1224
aS'/usr/share/matplotlib/mpl-data/fonts/afm/pcrb8a.afm'
p1225
aS'/usr/share/matplotlib/mpl-data/fonts/afm/pagd8a.afm'
p1226
aS'/usr/share/matplotlib/mpl-data/fonts/afm/pbkdi8a.afm'
p1227
aS'/usr/share/matplotlib/mpl-data/fonts/afm/putri8a.afm'
p1228
aS'/usr/share/matplotlib/mpl-data/fonts/afm/phvr8a.afm'
p1229
aS'/usr/share/matplotlib/mpl-data/fonts/afm/phvb8an.afm'
p1230
aS'/usr/share/fonts/type1/gsfonts/n021024l.afm'
p1231
aS'/usr/share/fonts/X11/Type1/lmtt10.afm'
p1232
aS'/usr/share/fonts/type1/gsfonts/n019003l.afm'
p1233
aS'/usr/share/fonts/type1/gsfonts/c059016l.afm'
p1234
aS'/usr/share/fonts/type1/gsfonts/c059033l.afm'
p1235
aS'/usr/share/fonts/X11/Type1/lmbx10.afm'
p1236
aS'/usr/share/fonts/type1/gsfonts/d050000l.afm'
p1237
aS'/usr/share/fonts/X11/Type1/lmssdo10.afm'
p1238
aS'/usr/share/fonts/X11/Type1/lmssqbx8.afm'
p1239
aS'/usr/share/fonts/X11/Type1/lmssqo8.afm'
p1240
aS'/usr/share/fonts/type1/gsfonts/n019064l.afm'
p1241
aS'/usr/share/fonts/X11/Type1/c0649bt_.afm'
p1242
aS'/usr/share/fonts/type1/gsfonts/p052024l.afm'
p1243
aS'/usr/share/fonts/X11/Type1/c0583bt_.afm'
p1244
aS'/usr/share/fonts/type1/gsfonts/n019063l.afm'
p1245
aS'/usr/share/fonts/X11/Type1/lmbxo10.afm'
p1246
aS'/usr/share/fonts/X11/Type1/lmvtko10.afm'
p1247
aS'/usr/share/fonts/type1/gsfonts/b018015l.afm'
p1248
aS'/usr/share/fonts/type1/gsfonts/z003034l.afm'
p1249
aS'/usr/share/fonts/X11/Type1/lmtcsc10.afm'
p1250
aS'/usr/share/fonts/X11/Type1/lmcsco10.afm'
p1251
aS'/usr/share/fonts/type1/gsfonts/a010035l.afm'
p1252
aS'/usr/share/fonts/X11/Type1/lmtlc10.afm'
p1253
aS'/usr/share/fonts/type1/gsfonts/n022024l.afm'
p1254
aS'/usr/share/fonts/type1/gsfonts/n019043l.afm'
p1255
aS'/usr/share/fonts/type1/gsfonts/n019004l.afm'
p1256
aS'/usr/share/fonts/X11/Type1/c0633bt_.afm'
p1257
aS'/usr/share/fonts/X11/Type1/lmvtto10.afm'
p1258
aS'/usr/share/fonts/X11/Type1/lmdunh10.afm'
p1259
aS'/usr/share/fonts/X11/Type1/lmss10.afm'
p1260
aS'/usr/share/fonts/type1/gsfonts/b018012l.afm'
p1261
aS'/usr/share/fonts/X11/Type1/lmvtt10.afm'
p1262
aS'/usr/share/fonts/type1/gsfonts/b018032l.afm'
p1263
aS'/usr/share/fonts/X11/Type1/lmro10.afm'
p1264
aS'/usr/share/fonts/type1/gsfonts/p052023l.afm'
p1265
aS'/usr/share/fonts/type1/gsfonts/b018035l.afm'
p1266
aS'/usr/share/fonts/X11/Type1/lmduno10.afm'
p1267
aS'/usr/share/fonts/type1/gsfonts/n019044l.afm'
p1268
aS'/usr/share/fonts/X11/Type1/lmbxi10.afm'
p1269
aS'/usr/share/fonts/X11/Type1/c0582bt_.afm'
p1270
aS'/usr/share/fonts/type1/gsfonts/p052004l.afm'
p1271
aS'/usr/share/fonts/type1/gsfonts/c059036l.afm'
p1272
aS'/usr/share/fonts/type1/gsfonts/n022004l.afm'
p1273
aS'/usr/share/fonts/X11/Type1/lmssq8.afm'
p1274
aS'/usr/share/fonts/X11/Type1/lmtcso10.afm'
p1275
aS'/usr/share/fonts/type1/gsfonts/a010015l.afm'
p1276
aS'/usr/share/fonts/X11/Type1/lmssbo10.afm'
p1277
aS'/usr/share/fonts/type1/gsfonts/n021003l.afm'
p1278
aS'/usr/share/fonts/X11/Type1/lmcsc10.afm'
p1279
aS'/usr/share/fonts/X11/Type1/lmsso10.afm'
p1280
aS'/usr/share/fonts/type1/gsfonts/n019023l.afm'
p1281
aS'/usr/share/fonts/X11/Type1/lmtko10.afm'
p1282
aS'/usr/share/fonts/type1/gsfonts/s050000l.afm'
p1283
aS'/usr/share/fonts/type1/mathml/Symbol.afm'
p1284
aS'/usr/share/fonts/X11/Type1/c0611bt_.afm'
p1285
aS'/usr/share/fonts/X11/Type1/lmbo10.afm'
p1286
aS'/usr/share/fonts/type1/gsfonts/n022023l.afm'
p1287
aS'/usr/share/fonts/X11/Type1/lmri10.afm'
p1288
aS'/usr/share/fonts/X11/Type1/Symbol.afm'
p1289
aS'/usr/share/fonts/X11/Type1/lmssqbo8.afm'
p1290
aS'/usr/share/fonts/type1/gsfonts/p052003l.afm'
p1291
aS'/usr/share/fonts/X11/Type1/lmr10.afm'
p1292
aS'/usr/share/fonts/X11/Type1/lmb10.afm'
p1293
aS'/usr/share/fonts/type1/gsfonts/a010013l.afm'
p1294
aS'/usr/share/fonts/X11/Type1/lmtk10.afm'
p1295
aS'/usr/share/fonts/X11/Type1/lmssdc10.afm'
p1296
aS'/usr/share/fonts/X11/Type1/lmssbx10.afm'
p1297
aS'/usr/share/fonts/type1/gsfonts/n019024l.afm'
p1298
aS'/usr/share/fonts/X11/Type1/lmvtk10.afm'
p1299
aS'/usr/share/fonts/type1/gsfonts/n022003l.afm'
p1300
aS'/usr/share/fonts/X11/Type1/lmtto10.afm'
p1301
aS'/usr/share/fonts/X11/Type1/c0648bt_.afm'
p1302
aS'/usr/share/fonts/X11/Type1/lmvtlo10.afm'
p1303
aS'/usr/share/fonts/type1/gsfonts/c059013l.afm'
p1304
aS'/usr/share/fonts/type1/gsfonts/n021023l.afm'
p1305
aS'/usr/share/fonts/type1/gsfonts/n021004l.afm'
p1306
aS'/usr/share/fonts/X11/Type1/lmtlo10.afm'
p1307
aS'/usr/share/fonts/type1/gsfonts/a010033l.afm'
p1308
aS'/usr/share/fonts/X11/Type1/lmvtl10.afm'
p1309
aS'/usr/share/fonts/X11/Type1/lmtl10.afm'
p1310
aS'/usr/share/fonts/X11/Type1/lmtti10.afm'
p1311
aS'/usr/share/fonts/X11/Type1/lmu10.afm'
p1312
aS'/usr/share/fonts/X11/Type1/lmtlco10.afm'
p1313
aS'/usr/share/fonts/X11/Type1/c0632bt_.afm'
p1314
aS'/usr/share/fonts/X11/Type1/c0419bt_.afm'
p1315
asS'afmlist'
p1316
(lp1317
g7
(g8
g9
NtRp1318
(dp1319
g12
g29
sg14
S'ITC Avant Garde Gothic'
p1320
sg16
I400
sg17
g13
sg18
g13
sg19
g1185
sg21
g22
sbag7
(g8
g9
NtRp1321
(dp1322
g12
g29
sg14
S'ITC Zapf Chancery'
p1323
sg16
I500
sg17
g13
sg18
g13
sg19
g1186
sg21
g22
sbag7
(g8
g9
NtRp1324
(dp1325
g12
g13
sg14
S'Palatino'
p1326
sg16
I700
sg17
g13
sg18
g13
sg19
g1187
sg21
g22
sbag7
(g8
g9
NtRp1327
(dp1328
g12
g29
sg14
S'Utopia'
p1329
sg16
I700
sg17
g13
sg18
g13
sg19
g1188
sg21
g22
sbag7
(g8
g9
NtRp1330
(dp1331
g12
g29
sg14
S'Helvetica'
p1332
sg16
I500
sg17
g13
sg18
g13
sg19
g1189
sg21
g22
sbag7
(g8
g9
NtRp1333
(dp1334
g12
g13
sg14
S'ITC Bookman'
p1335
sg16
I600
sg17
g13
sg18
g13
sg19
g1190
sg21
g22
sbag7
(g8
g9
NtRp1336
(dp1337
g12
g29
sg14
S'Courier'
p1338
sg16
I700
sg17
g13
sg18
g13
sg19
g1191
sg21
g22
sbag7
(g8
g9
NtRp1339
(dp1340
g12
g13
sg14
S'Utopia'
p1341
sg16
I400
sg17
g13
sg18
g13
sg19
g1192
sg21
g22
sbag7
(g8
g9
NtRp1342
(dp1343
g12
g29
sg14
S'ITC Avant Garde Gothic'
p1344
sg16
I600
sg17
g13
sg18
g13
sg19
g1193
sg21
g22
sbag7
(g8
g9
NtRp1345
(dp1346
g12
g13
sg14
S'Courier'
p1347
sg16
I500
sg17
g13
sg18
g13
sg19
g1194
sg21
g22
sbag7
(g8
g9
NtRp1348
(dp1349
g12
g29
sg14
S'New Century Schoolbook'
p1350
sg16
I500
sg17
g13
sg18
g13
sg19
g1195
sg21
g22
sbag7
(g8
g9
NtRp1351
(dp1352
g12
g13
sg14
S'New Century Schoolbook'
p1353
sg16
I700
sg17
g13
sg18
g13
sg19
g1196
sg21
g22
sbag7
(g8
g9
NtRp1354
(dp1355
g12
g29
sg14
S'New Century Schoolbook'
p1356
sg16
I700
sg17
g13
sg18
g13
sg19
g1197
sg21
g22
sbag7
(g8
g9
NtRp1357
(dp1358
g12
g13
sg14
S'New Century Schoolbook'
p1359
sg16
I500
sg17
g13
sg18
g13
sg19
g1198
sg21
g22
sbag7
(g8
g9
NtRp1360
(dp1361
g12
g13
sg14
S'Computer Modern'
p1362
sg16
I500
sg17
g13
sg18
g13
sg19
g1199
sg21
g22
sbag7
(g8
g9
NtRp1363
(dp1364
g12
g13
sg14
S'Computer Modern'
p1365
sg16
I500
sg17
g13
sg18
g13
sg19
g1200
sg21
g22
sbag7
(g8
g9
NtRp1366
(dp1367
g12
g13
sg14
S'Helvetica'
p1368
sg16
I500
sg17
g13
sg18
g13
sg19
g1201
sg21
g22
sbag7
(g8
g9
NtRp1369
(dp1370
g12
g29
sg14
S'Helvetica'
p1371
sg16
I500
sg17
g13
sg18
g13
sg19
g1202
sg21
g22
sbag7
(g8
g9
NtRp1372
(dp1373
g12
g13
sg14
S'Times'
p1374
sg16
I500
sg17
g13
sg18
g13
sg19
g1203
sg21
g22
sbag7
(g8
g9
NtRp1375
(dp1376
g12
g29
sg14
S'Palatino'
p1377
sg16
I700
sg17
g13
sg18
g13
sg19
g1204
sg21
g22
sbag7
(g8
g9
NtRp1378
(dp1379
g12
g29
sg14
S'Computer Modern'
p1380
sg16
I500
sg17
g13
sg18
g13
sg19
g1205
sg21
g22
sbag7
(g8
g9
NtRp1381
(dp1382
g12
g13
sg14
S'ITC Avant Garde Gothic'
p1383
sg16
I400
sg17
g13
sg18
g13
sg19
g1206
sg21
g22
sbag7
(g8
g9
NtRp1384
(dp1385
g12
g13
sg14
S'Utopia'
p1386
sg16
I700
sg17
g13
sg18
g13
sg19
g1207
sg21
g22
sbag7
(g8
g9
NtRp1387
(dp1388
g12
g29
sg14
S'Computer Modern'
p1389
sg16
I500
sg17
g13
sg18
g13
sg19
g1208
sg21
g22
sbag7
(g8
g9
NtRp1390
(dp1391
g12
g13
sg14
S'Helvetica'
p1392
sg16
I200
sg17
g13
sg18
g13
sg19
g1209
sg21
g22
sbag7
(g8
g9
NtRp1393
(dp1394
g12
g29
sg14
S'Helvetica'
p1395
sg16
I700
sg17
g13
sg18
g13
sg19
g1210
sg21
g22
sbag7
(g8
g9
NtRp1396
(dp1397
g12
g29
sg14
S'Helvetica'
p1398
sg16
I700
sg17
g13
sg18
g13
sg19
g1211
sg21
g22
sbag7
(g8
g9
NtRp1399
(dp1400
g12
g13
sg14
S'Computer Modern'
p1401
sg16
I500
sg17
g13
sg18
g13
sg19
g1212
sg21
g22
sbag7
(g8
g9
NtRp1402
(dp1403
g12
g13
sg14
S'Times'
p1404
sg16
I700
sg17
g13
sg18
g13
sg19
g1213
sg21
g22
sbag7
(g8
g9
NtRp1405
(dp1406
g12
g29
sg14
S'Helvetica'
p1407
sg16
I200
sg17
g13
sg18
g13
sg19
g1214
sg21
g22
sbag7
(g8
g9
NtRp1408
(dp1409
g12
g13
sg14
S'Helvetica'
p1410
sg16
I700
sg17
g13
sg18
g13
sg19
g1215
sg21
g22
sbag7
(g8
g9
NtRp1411
(dp1412
g12
g13
sg14
S'ITC Zapf Dingbats'
p1413
sg16
I500
sg17
g13
sg18
g13
sg19
g1216
sg21
g22
sbag7
(g8
g9
NtRp1414
(dp1415
g12
g29
sg14
S'Times'
p1416
sg16
I500
sg17
g13
sg18
g13
sg19
g1217
sg21
g22
sbag7
(g8
g9
NtRp1417
(dp1418
g12
g13
sg14
S'Palatino'
p1419
sg16
I500
sg17
g13
sg18
g13
sg19
g1218
sg21
g22
sbag7
(g8
g9
NtRp1420
(dp1421
g12
g13
sg14
S'ITC Bookman'
p1422
sg16
I200
sg17
g13
sg18
g13
sg19
g1219
sg21
g22
sbag7
(g8
g9
NtRp1423
(dp1424
g12
g29
sg14
S'Courier'
p1425
sg16
I500
sg17
g13
sg18
g13
sg19
g1220
sg21
g22
sbag7
(g8
g9
NtRp1426
(dp1427
g12
g13
sg14
S'Symbol'
p1428
sg16
I500
sg17
g13
sg18
g13
sg19
g1221
sg21
g22
sbag7
(g8
g9
NtRp1429
(dp1430
g12
g29
sg14
S'Palatino'
p1431
sg16
I500
sg17
g13
sg18
g13
sg19
g1222
sg21
g22
sbag7
(g8
g9
NtRp1432
(dp1433
g12
g29
sg14
S'Times'
p1434
sg16
I700
sg17
g13
sg18
g13
sg19
g1223
sg21
g22
sbag7
(g8
g9
NtRp1435
(dp1436
g12
g29
sg14
S'ITC Bookman'
p1437
sg16
I200
sg17
g13
sg18
g13
sg19
g1224
sg21
g22
sbag7
(g8
g9
NtRp1438
(dp1439
g12
g13
sg14
S'Courier'
p1440
sg16
I700
sg17
g13
sg18
g13
sg19
g1225
sg21
g22
sbag7
(g8
g9
NtRp1441
(dp1442
g12
g13
sg14
S'ITC Avant Garde Gothic'
p1443
sg16
I600
sg17
g13
sg18
g13
sg19
g1226
sg21
g22
sbag7
(g8
g9
NtRp1444
(dp1445
g12
g29
sg14
S'ITC Bookman'
p1446
sg16
I600
sg17
g13
sg18
g13
sg19
g1227
sg21
g22
sbag7
(g8
g9
NtRp1447
(dp1448
g12
g29
sg14
S'Utopia'
p1449
sg16
I400
sg17
g13
sg18
g13
sg19
g1228
sg21
g22
sbag7
(g8
g9
NtRp1450
(dp1451
g12
g13
sg14
S'Helvetica'
p1452
sg16
I500
sg17
g13
sg18
g13
sg19
g1229
sg21
g22
sbag7
(g8
g9
NtRp1453
(dp1454
g12
g13
sg14
S'Helvetica'
p1455
sg16
I700
sg17
g13
sg18
g13
sg19
g1230
sg21
g22
sbag7
(g8
g9
NtRp1456
(dp1457
g12
g29
sg14
S'Nimbus Roman No9 L'
p1458
sg16
I700
sg17
g13
sg18
g13
sg19
g1231
sg21
g22
sbag7
(g8
g9
NtRp1459
(dp1460
g12
g13
sg14
S'LMMono10'
p1461
sg16
I400
sg17
g13
sg18
g13
sg19
g1232
sg21
g22
sbag7
(g8
g9
NtRp1462
(dp1463
g12
g13
sg14
S'Nimbus Sans L'
p1464
sg16
I400
sg17
g13
sg18
g13
sg19
g1233
sg21
g22
sbag7
(g8
g9
NtRp1465
(dp1466
g12
g13
sg14
S'Century Schoolbook L'
p1467
sg16
I700
sg17
g13
sg18
g13
sg19
g1234
sg21
g22
sbag7
(g8
g9
NtRp1468
(dp1469
g12
g29
sg14
S'Century Schoolbook L'
p1470
sg16
I400
sg17
g13
sg18
g13
sg19
g1235
sg21
g22
sbag7
(g8
g9
NtRp1471
(dp1472
g12
g13
sg14
S'LMRoman10'
p1473
sg16
I700
sg17
g13
sg18
g13
sg19
g1236
sg21
g22
sbag7
(g8
g9
NtRp1474
(dp1475
g12
g13
sg14
S'Dingbats'
p1476
sg16
I400
sg17
g13
sg18
g13
sg19
g1237
sg21
g22
sbag7
(g8
g9
NtRp1477
(dp1478
g12
g29
sg14
S'LMSansDemiCond10'
p1479
sg16
I600
sg17
g13
sg18
g13
sg19
g1238
sg21
g22
sbag7
(g8
g9
NtRp1480
(dp1481
g12
g13
sg14
S'LMSansQuot8'
p1482
sg16
I700
sg17
g13
sg18
g13
sg19
g1239
sg21
g22
sbag7
(g8
g9
NtRp1483
(dp1484
g12
g29
sg14
S'LMSansQuot8'
p1485
sg16
I400
sg17
g13
sg18
g13
sg19
g1240
sg21
g22
sbag7
(g8
g9
NtRp1486
(dp1487
g12
g29
sg14
S'Nimbus Sans L'
p1488
sg16
I700
sg17
g13
sg18
g13
sg19
g1241
sg21
g22
sbag7
(g8
g9
NtRp1489
(dp1490
g12
g29
sg14
S'Bitstream Charter'
p1491
sg16
I400
sg17
g13
sg18
g13
sg19
g1242
sg21
g22
sbag7
(g8
g9
NtRp1492
(dp1493
g12
g29
sg14
S'URW Palladio L'
p1494
sg16
I700
sg17
g13
sg18
g13
sg19
g1243
sg21
g22
sbag7
(g8
g9
NtRp1495
(dp1496
g12
g13
sg14
S'Courier 10 Pitch'
p1497
sg16
I700
sg17
g13
sg18
g13
sg19
g1244
sg21
g22
sbag7
(g8
g9
NtRp1498
(dp1499
g12
g29
sg14
S'Nimbus Sans L'
p1500
sg16
I400
sg17
g13
sg18
g13
sg19
g1245
sg21
g22
sbag7
(g8
g9
NtRp1501
(dp1502
g12
g29
sg14
S'LMRomanSlant10'
p1503
sg16
I700
sg17
g13
sg18
g13
sg19
g1246
sg21
g22
sbag7
(g8
g9
NtRp1504
(dp1505
g12
g29
sg14
S'LMMonoPropLt10'
p1506
sg16
I700
sg17
g13
sg18
g13
sg19
g1247
sg21
g22
sbag7
(g8
g9
NtRp1507
(dp1508
g12
g13
sg14
S'URW Bookman L'
p1509
sg16
I700
sg17
g13
sg18
g13
sg19
g1248
sg21
g22
sbag7
(g8
g9
NtRp1510
(dp1511
g12
g29
sg14
S'URW Chancery L'
p1512
sg16
I500
sg17
g13
sg18
g13
sg19
g1249
sg21
g22
sbag7
(g8
g9
NtRp1513
(dp1514
g12
g13
sg14
S'LMMonoCaps10'
p1515
sg16
I400
sg17
g13
sg18
g13
sg19
g1250
sg21
g22
sbag7
(g8
g9
NtRp1516
(dp1517
g12
g29
sg14
S'LMRomanCaps10'
p1518
sg16
I400
sg17
g13
sg18
g13
sg19
g1251
sg21
g22
sbag7
(g8
g9
NtRp1519
(dp1520
g12
g29
sg14
S'URW Gothic L'
p1521
sg16
I600
sg17
g13
sg18
g13
sg19
g1252
sg21
g22
sbag7
(g8
g9
NtRp1522
(dp1523
g12
g13
sg14
S'LMMonoLtCond10'
p1524
sg16
I200
sg17
g13
sg18
g13
sg19
g1253
sg21
g22
sbag7
(g8
g9
NtRp1525
(dp1526
g12
g29
sg14
S'Nimbus Mono L'
p1527
sg16
I700
sg17
g13
sg18
g13
sg19
g1254
sg21
g22
sbag7
(g8
g9
NtRp1528
(dp1529
g12
g13
sg14
S'Nimbus Sans L'
p1530
sg16
I400
sg17
g13
sg18
g13
sg19
g1255
sg21
g22
sbag7
(g8
g9
NtRp1531
(dp1532
g12
g13
sg14
S'Nimbus Sans L'
p1533
sg16
I700
sg17
g13
sg18
g13
sg19
g1256
sg21
g22
sbag7
(g8
g9
NtRp1534
(dp1535
g12
g29
sg14
S'Bitstream Charter'
p1536
sg16
I700
sg17
g13
sg18
g13
sg19
g1257
sg21
g22
sbag7
(g8
g9
NtRp1537
(dp1538
g12
g29
sg14
S'LMMonoProp10'
p1539
sg16
I400
sg17
g13
sg18
g13
sg19
g1258
sg21
g22
sbag7
(g8
g9
NtRp1540
(dp1541
g12
g13
sg14
S'LMRomanDunh10'
p1542
sg16
I400
sg17
g13
sg18
g13
sg19
g1259
sg21
g22
sbag7
(g8
g9
NtRp1543
(dp1544
g12
g13
sg14
S'LMSans10'
p1545
sg16
I400
sg17
g13
sg18
g13
sg19
g1260
sg21
g22
sbag7
(g8
g9
NtRp1546
(dp1547
g12
g13
sg14
S'URW Bookman L'
p1548
sg16
I400
sg17
g13
sg18
g13
sg19
g1261
sg21
g22
sbag7
(g8
g9
NtRp1549
(dp1550
g12
g13
sg14
S'LMMonoProp10'
p1551
sg16
I400
sg17
g13
sg18
g13
sg19
g1262
sg21
g22
sbag7
(g8
g9
NtRp1552
(dp1553
g12
g29
sg14
S'URW Bookman L'
p1554
sg16
I400
sg17
g13
sg18
g13
sg19
g1263
sg21
g22
sbag7
(g8
g9
NtRp1555
(dp1556
g12
g29
sg14
S'LMRomanSlant10'
p1557
sg16
I400
sg17
g13
sg18
g13
sg19
g1264
sg21
g22
sbag7
(g8
g9
NtRp1558
(dp1559
g12
g29
sg14
S'URW Palladio L'
p1560
sg16
I400
sg17
g13
sg18
g13
sg19
g1265
sg21
g22
sbag7
(g8
g9
NtRp1561
(dp1562
g12
g29
sg14
S'URW Bookman L'
p1563
sg16
I700
sg17
g13
sg18
g13
sg19
g1266
sg21
g22
sbag7
(g8
g9
NtRp1564
(dp1565
g12
g29
sg14
S'LMRomanDunh10'
p1566
sg16
I400
sg17
g13
sg18
g13
sg19
g1267
sg21
g22
sbag7
(g8
g9
NtRp1567
(dp1568
g12
g13
sg14
S'Nimbus Sans L'
p1569
sg16
I700
sg17
g13
sg18
g13
sg19
g1268
sg21
g22
sbag7
(g8
g9
NtRp1570
(dp1571
g12
g29
sg14
S'LMRoman10'
p1572
sg16
I700
sg17
g13
sg18
g13
sg19
g1269
sg21
g22
sbag7
(g8
g9
NtRp1573
(dp1574
g12
g29
sg14
S'Courier 10 Pitch'
p1575
sg16
I400
sg17
g13
sg18
g13
sg19
g1270
sg21
g22
sbag7
(g8
g9
NtRp1576
(dp1577
g12
g13
sg14
S'URW Palladio L'
p1578
sg16
I700
sg17
g13
sg18
g13
sg19
g1271
sg21
g22
sbag7
(g8
g9
NtRp1579
(dp1580
g12
g29
sg14
S'Century Schoolbook L'
p1581
sg16
I700
sg17
g13
sg18
g13
sg19
g1272
sg21
g22
sbag7
(g8
g9
NtRp1582
(dp1583
g12
g13
sg14
S'Nimbus Mono L'
p1584
sg16
I700
sg17
g13
sg18
g13
sg19
g1273
sg21
g22
sbag7
(g8
g9
NtRp1585
(dp1586
g12
g13
sg14
S'LMSansQuot8'
p1587
sg16
I400
sg17
g13
sg18
g13
sg19
g1274
sg21
g22
sbag7
(g8
g9
NtRp1588
(dp1589
g12
g29
sg14
S'LMMonoCaps10'
p1590
sg16
I400
sg17
g13
sg18
g13
sg19
g1275
sg21
g22
sbag7
(g8
g9
NtRp1591
(dp1592
g12
g13
sg14
S'URW Gothic L'
p1593
sg16
I600
sg17
g13
sg18
g13
sg19
g1276
sg21
g22
sbag7
(g8
g9
NtRp1594
(dp1595
g12
g29
sg14
S'LMSans10'
p1596
sg16
I700
sg17
g13
sg18
g13
sg19
g1277
sg21
g22
sbag7
(g8
g9
NtRp1597
(dp1598
g12
g13
sg14
S'Nimbus Roman No9 L'
p1599
sg16
I400
sg17
g13
sg18
g13
sg19
g1278
sg21
g22
sbag7
(g8
g9
NtRp1600
(dp1601
g12
g13
sg14
S'LMRomanCaps10'
p1602
sg16
I400
sg17
g13
sg18
g13
sg19
g1279
sg21
g22
sbag7
(g8
g9
NtRp1603
(dp1604
g12
g29
sg14
S'LMSans10'
p1605
sg16
I400
sg17
g13
sg18
g13
sg19
g1280
sg21
g22
sbag7
(g8
g9
NtRp1606
(dp1607
g12
g29
sg14
S'Nimbus Sans L'
p1608
sg16
I400
sg17
g13
sg18
g13
sg19
g1281
sg21
g22
sbag7
(g8
g9
NtRp1609
(dp1610
g12
g29
sg14
S'LMMonoLt10'
p1611
sg16
I700
sg17
g13
sg18
g13
sg19
g1282
sg21
g22
sbag7
(g8
g9
NtRp1612
(dp1613
g12
g13
sg14
S'Standard Symbols L'
p1614
sg16
I400
sg17
g13
sg18
g13
sg19
g1283
sg21
g22
sbag7
(g8
g9
NtRp1615
(dp1616
g12
g13
sg14
S'Symbol'
p1617
sg16
I400
sg17
g13
sg18
g13
sg19
g1284
sg21
g22
sbag7
(g8
g9
NtRp1618
(dp1619
g12
g29
sg14
S'Courier 10 Pitch'
p1620
sg16
I700
sg17
g13
sg18
g13
sg19
g1285
sg21
g22
sbag7
(g8
g9
NtRp1621
(dp1622
g12
g29
sg14
S'LMRomanDemi10'
p1623
sg16
I600
sg17
g13
sg18
g13
sg19
g1286
sg21
g22
sbag7
(g8
g9
NtRp1624
(dp1625
g12
g29
sg14
S'Nimbus Mono L'
p1626
sg16
I400
sg17
g13
sg18
g13
sg19
g1287
sg21
g22
sbag7
(g8
g9
NtRp1627
(dp1628
g12
g29
sg14
S'LMRoman10'
p1629
sg16
I400
sg17
g13
sg18
g13
sg19
g1288
sg21
g22
sbag7
(g8
g9
NtRp1630
(dp1631
g12
g29
sg14
S'LMSansQuot8'
p1632
sg16
I700
sg17
g13
sg18
g13
sg19
g1290
sg21
g22
sbag7
(g8
g9
NtRp1633
(dp1634
g12
g13
sg14
S'URW Palladio L'
p1635
sg16
I500
sg17
g13
sg18
g13
sg19
g1291
sg21
g22
sbag7
(g8
g9
NtRp1636
(dp1637
g12
g13
sg14
S'LMRoman10'
p1638
sg16
I400
sg17
g13
sg18
g13
sg19
g1292
sg21
g22
sbag7
(g8
g9
NtRp1639
(dp1640
g12
g13
sg14
S'LMRomanDemi10'
p1641
sg16
I600
sg17
g13
sg18
g13
sg19
g1293
sg21
g22
sbag7
(g8
g9
NtRp1642
(dp1643
g12
g13
sg14
S'URW Gothic L'
p1644
sg16
I400
sg17
g13
sg18
g13
sg19
g1294
sg21
g22
sbag7
(g8
g9
NtRp1645
(dp1646
g12
g13
sg14
S'LMMonoLt10'
p1647
sg16
I700
sg17
g13
sg18
g13
sg19
g1295
sg21
g22
sbag7
(g8
g9
NtRp1648
(dp1649
g12
g13
sg14
S'LMSansDemiCond10'
p1650
sg16
I600
sg17
g13
sg18
g13
sg19
g1296
sg21
g22
sbag7
(g8
g9
NtRp1651
(dp1652
g12
g13
sg14
S'LMSans10'
p1653
sg16
I700
sg17
g13
sg18
g13
sg19
g1297
sg21
g22
sbag7
(g8
g9
NtRp1654
(dp1655
g12
g29
sg14
S'Nimbus Sans L'
p1656
sg16
I700
sg17
g13
sg18
g13
sg19
g1298
sg21
g22
sbag7
(g8
g9
NtRp1657
(dp1658
g12
g13
sg14
S'LMMonoPropLt10'
p1659
sg16
I700
sg17
g13
sg18
g13
sg19
g1299
sg21
g22
sbag7
(g8
g9
NtRp1660
(dp1661
g12
g13
sg14
S'Nimbus Mono L'
p1662
sg16
I400
sg17
g13
sg18
g13
sg19
g1300
sg21
g22
sbag7
(g8
g9
NtRp1663
(dp1664
g12
g29
sg14
S'LMMonoSlant10'
p1665
sg16
I400
sg17
g13
sg18
g13
sg19
g1301
sg21
g22
sbag7
(g8
g9
NtRp1666
(dp1667
g12
g13
sg14
S'Bitstream Charter'
p1668
sg16
I400
sg17
g13
sg18
g13
sg19
g1302
sg21
g22
sbag7
(g8
g9
NtRp1669
(dp1670
g12
g29
sg14
S'LMMonoPropLt10'
p1671
sg16
I200
sg17
g13
sg18
g13
sg19
g1303
sg21
g22
sbag7
(g8
g9
NtRp1672
(dp1673
g12
g13
sg14
S'Century Schoolbook L'
p1674
sg16
I500
sg17
g13
sg18
g13
sg19
g1304
sg21
g22
sbag7
(g8
g9
NtRp1675
(dp1676
g12
g29
sg14
S'Nimbus Roman No9 L'
p1677
sg16
I400
sg17
g13
sg18
g13
sg19
g1305
sg21
g22
sbag7
(g8
g9
NtRp1678
(dp1679
g12
g13
sg14
S'Nimbus Roman No9 L'
p1680
sg16
I700
sg17
g13
sg18
g13
sg19
g1306
sg21
g22
sbag7
(g8
g9
NtRp1681
(dp1682
g12
g29
sg14
S'LMMonoLt10'
p1683
sg16
I200
sg17
g13
sg18
g13
sg19
g1307
sg21
g22
sbag7
(g8
g9
NtRp1684
(dp1685
g12
g29
sg14
S'URW Gothic L'
p1686
sg16
I400
sg17
g13
sg18
g13
sg19
g1308
sg21
g22
sbag7
(g8
g9
NtRp1687
(dp1688
g12
g13
sg14
S'LMMonoPropLt10'
p1689
sg16
I200
sg17
g13
sg18
g13
sg19
g1309
sg21
g22
sbag7
(g8
g9
NtRp1690
(dp1691
g12
g13
sg14
S'LMMonoLt10'
p1692
sg16
I200
sg17
g13
sg18
g13
sg19
g1310
sg21
g22
sbag7
(g8
g9
NtRp1693
(dp1694
g12
g29
sg14
S'LMMono10'
p1695
sg16
I400
sg17
g13
sg18
g13
sg19
g1311
sg21
g22
sbag7
(g8
g9
NtRp1696
(dp1697
g12
g13
sg14
S'LMRomanUnsl10'
p1698
sg16
I400
sg17
g13
sg18
g13
sg19
g1312
sg21
g22
sbag7
(g8
g9
NtRp1699
(dp1700
g12
g29
sg14
S'LMMonoLtCond10'
p1701
sg16
I200
sg17
g13
sg18
g13
sg19
g1313
sg21
g22
sbag7
(g8
g9
NtRp1702
(dp1703
g12
g13
sg14
S'Bitstream Charter'
p1704
sg16
I700
sg17
g13
sg18
g13
sg19
g1314
sg21
g22
sbag7
(g8
g9
NtRp1705
(dp1706
g12
g13
sg14
S'Courier 10 Pitch'
p1707
sg16
I400
sg17
g13
sg18
g13
sg19
g1315
sg21
g22
sbasb.